Certificate:
    Data:
        Version: 3 (0x2)
        Serial Number: 6 (0x6)
    Signature Algorithm: sha256WithRSAEncryption
        Issuer: C=US, ST=Michigan, L=Mason, O=Dart Container Corp., OU=Koji Certificate Authority, CN=mdct-koji.dartcontainer.com
        Validity
            Not Before: Oct 17 20:28:23 2013 GMT
            Not After : Oct 15 20:28:23 2023 GMT
        Subject: C=US, ST=Michigan, O=Dart Container Corp., OU=builder-01, CN=builder-01
        Subject Public Key Info:
            Public Key Algorithm: rsaEncryption
                Public-Key: (2048 bit)
                Modulus:
                    00:d9:3f:c7:5c:30:72:29:82:86:a3:5a:ac:0e:f1:
                    3e:54:9b:25:e1:6e:a3:44:8f:c2:9d:dc:27:be:d7:
                    81:62:8a:3f:70:8f:4e:3b:54:86:9c:42:0c:4d:20:
                    c8:47:ec:e4:92:f3:da:0c:63:e5:1d:14:e4:17:1a:
                    ae:25:0b:12:0d:79:40:c7:bd:fe:c0:7c:19:81:27:
                    1f:6b:e6:16:68:3b:ed:7b:ec:03:9e:47:e8:f6:14:
                    a9:52:5c:f3:dc:7f:dd:61:3b:11:53:df:9d:f9:cd:
                    be:bc:d9:dc:54:fe:4d:47:34:16:95:48:e6:68:48:
                    5d:f6:62:82:3b:e4:c6:ca:fc:e9:37:c9:50:ec:93:
                    8f:e3:02:a4:9c:0e:56:7b:70:dd:e4:7b:8f:0b:74:
                    58:64:70:be:5b:3e:5b:b6:e0:3a:f4:17:de:49:9d:
                    00:f7:fb:06:66:d9:bd:19:50:d1:94:bc:dc:86:63:
                    3e:9c:e3:f9:84:c4:6b:e7:6b:18:1b:d9:bf:cf:29:
                    52:8a:3e:f5:39:b7:23:54:c7:3c:ff:7b:20:fb:8b:
                    65:4a:85:ba:25:c7:76:46:87:f6:30:27:4b:04:aa:
                    53:11:27:48:b5:32:92:00:25:16:0d:12:f2:6d:0e:
                    ba:b7:49:e9:dc:92:59:0b:b8:7d:62:54:2f:39:9d:
                    1f:d5
                Exponent: 65537 (0x10001)
        X509v3 extensions:
            X509v3 Basic Constraints: 
                CA:FALSE
            Netscape Comment: 
                OpenSSL Generated Certificate
            X509v3 Subject Key Identifier: 
                E0:7A:0F:C6:2B:C4:C2:B0:2D:A9:B2:E6:B9:B3:D0:84:A6:BA:55:5E
            X509v3 Authority Key Identifier: 
                keyid:C6:3B:D4:AD:C3:0E:E8:A0:2A:9D:B9:82:A2:93:BB:9C:C4:CA:EF:17
                DirName:/C=US/ST=Michigan/L=Mason/O=Dart Container Corp./OU=Koji Certificate Authority/CN=mdct-koji.dartcontainer.com
                serial:83:F9:D5:17:12:AC:A4:77

    Signature Algorithm: sha256WithRSAEncryption
         26:58:7b:47:01:80:f2:e9:74:a0:46:d1:85:41:10:51:0b:9e:
         3e:9f:fa:94:2b:03:96:87:35:4c:74:82:eb:df:50:8d:7d:29:
         8d:23:ad:cd:27:2e:0a:f1:0b:35:7f:aa:d2:c1:1b:6c:fc:32:
         3e:e4:62:6d:eb:1f:da:49:7c:70:98:53:e3:5c:8c:e8:3b:42:
         7a:57:b8:d4:fe:c0:9d:71:21:a3:30:88:f6:d1:aa:b5:ef:bd:
         78:c7:e4:f9:68:cf:ec:fd:8a:6e:5d:df:0e:9d:a4:99:7b:10:
         da:ea:15:d5:4f:1a:2f:0f:00:31:bc:3e:13:61:e1:73:3b:1f:
         07:cc:a2:23:a4:08:6f:01:43:85:a0:04:11:b6:e0:52:38:07:
         82:92:4b:32:d1:b9:56:d5:fb:ea:d5:7e:d4:84:dc:a1:4a:9f:
         f2:e3:1a:7e:be:6f:7d:17:be:48:d7:9c:22:ee:f3:58:71:29:
         09:bb:c8:92:f3:2d:78:7c:ff:a8:91:6f:66:4f:59:8e:1b:dc:
         4b:81:4b:4f:5e:fe:7c:ae:39:c5:65:3a:23:8b:1d:52:4a:f5:
         9d:3b:6d:f4:bd:b6:16:b4:95:be:f0:6b:13:df:cb:b0:f5:b2:
         d3:ff:c7:11:09:73:7f:ea:77:cd:6a:36:fd:1f:ac:89:f0:5c:
         12:dd:55:57
-----BEGIN CERTIFICATE-----
MIIErzCCA5egAwIBAgIBBjANBgkqhkiG9w0BAQsFADCBmjELMAkGA1UEBhMCVVMx
ETAPBgNVBAgTCE1pY2hpZ2FuMQ4wDAYDVQQHEwVNYXNvbjEdMBsGA1UEChMURGFy
dCBDb250YWluZXIgQ29ycC4xIzAhBgNVBAsTGktvamkgQ2VydGlmaWNhdGUgQXV0
aG9yaXR5MSQwIgYDVQQDExttZGN0LWtvamkuZGFydGNvbnRhaW5lci5jb20wHhcN
MTMxMDE3MjAyODIzWhcNMjMxMDE1MjAyODIzWjBpMQswCQYDVQQGEwJVUzERMA8G
A1UECBMITWljaGlnYW4xHTAbBgNVBAoTFERhcnQgQ29udGFpbmVyIENvcnAuMRMw
EQYDVQQLEwpidWlsZGVyLTAxMRMwEQYDVQQDEwpidWlsZGVyLTAxMIIBIjANBgkq
hkiG9w0BAQEFAAOCAQ8AMIIBCgKCAQEA2T/HXDByKYKGo1qsDvE+VJsl4W6jRI/C
ndwnvteBYoo/cI9OO1SGnEIMTSDIR+zkkvPaDGPlHRTkFxquJQsSDXlAx73+wHwZ
gScfa+YWaDvte+wDnkfo9hSpUlzz3H/dYTsRU9+d+c2+vNncVP5NRzQWlUjmaEhd
9mKCO+TGyvzpN8lQ7JOP4wKknA5We3Dd5HuPC3RYZHC+Wz5btuA69BfeSZ0A9/sG
Ztm9GVDRlLzchmM+nOP5hMRr52sYG9m/zylSij71ObcjVMc8/3sg+4tlSoW6Jcd2
Rof2MCdLBKpTESdItTKSACUWDRLybQ66t0np3JJZC7h9YlQvOZ0f1QIDAQABo4IB
LjCCASowCQYDVR0TBAIwADAsBglghkgBhvhCAQ0EHxYdT3BlblNTTCBHZW5lcmF0
ZWQgQ2VydGlmaWNhdGUwHQYDVR0OBBYEFOB6D8YrxMKwLamy5rmz0ISmulVeMIHP
BgNVHSMEgccwgcSAFMY71K3DDuigKp25gqKTu5zEyu8XoYGgpIGdMIGaMQswCQYD
VQQGEwJVUzERMA8GA1UECBMITWljaGlnYW4xDjAMBgNVBAcTBU1hc29uMR0wGwYD
VQQKExREYXJ0IENvbnRhaW5lciBDb3JwLjEjMCEGA1UECxMaS29qaSBDZXJ0aWZp
Y2F0ZSBBdXRob3JpdHkxJDAiBgNVBAMTG21kY3Qta29qaS5kYXJ0Y29udGFpbmVy
LmNvbYIJAIP51RcSrKR3MA0GCSqGSIb3DQEBCwUAA4IBAQAmWHtHAYDy6XSgRtGF
QRBRC54+n/qUKwOWhzVMdILr31CNfSmNI63NJy4K8Qs1f6rSwRts/DI+5GJt6x/a
SXxwmFPjXIzoO0J6V7jU/sCdcSGjMIj20aq17714x+T5aM/s/YpuXd8OnaSZexDa
6hXVTxovDwAxvD4TYeFzOx8HzKIjpAhvAUOFoAQRtuBSOAeCkksy0blW1fvq1X7U
hNyhSp/y4xp+vm99F75I15wi7vNYcSkJu8iS8y14fP+okW9mT1mOG9xLgUtPXv58
rjnFZTojix1SSvWdO230vbYWtJW+8GsT38uw9bLT/8cRCXN/6nfNajb9H6yJ8FwS
3VVX
-----END CERTIFICATE-----
-----BEGIN RSA PRIVATE KEY-----
MIIEowIBAAKCAQEA2T/HXDByKYKGo1qsDvE+VJsl4W6jRI/CndwnvteBYoo/cI9O
O1SGnEIMTSDIR+zkkvPaDGPlHRTkFxquJQsSDXlAx73+wHwZgScfa+YWaDvte+wD
nkfo9hSpUlzz3H/dYTsRU9+d+c2+vNncVP5NRzQWlUjmaEhd9mKCO+TGyvzpN8lQ
7JOP4wKknA5We3Dd5HuPC3RYZHC+Wz5btuA69BfeSZ0A9/sGZtm9GVDRlLzchmM+
nOP5hMRr52sYG9m/zylSij71ObcjVMc8/3sg+4tlSoW6Jcd2Rof2MCdLBKpTESdI
tTKSACUWDRLybQ66t0np3JJZC7h9YlQvOZ0f1QIDAQABAoIBAF3buivQGmJoq/aD
Q/aorz8qUHFWtV73pSNCbEF9Jb8G72WX5DqpyAZWWq4vzZeVdyMuCzRzLBcmYWzB
8B686626hwxEv301oGc2GdMp8uBRk8aILwABHVrDjmuxEQJgk6pgNJpB8CRuiUtZ
7GEkBQsQK/mPJ0xCh6Xc5Vsu+dvUIK4/37aNCuBGUeKS1aL9hp4JJJgZ7CGADZ85
rjOtmxL/jTURN7FX8mMCUvWXdwK84NXdtZ1jjQsH92C1td9a8Hcef8bg/TMS/+Ny
oZdYiJDUX15nFWH2z+L8w2PBS74OU9o2ACL17g1v369tJYDoGzQTIkxt0tfQhh5I
+mXxrTkCgYEA8gdq6CEtfpUY26ndZx7eJEUoFtlk0QCA9A3Q47+hgb9e73rasqP7
qxLo1Katy0XK+GgV/WJopYeMZiGARZYUnMLLEGZR+hPuZFSmSQ3G1OOM8cj3P7OQ
BNiyw2DEIzf/FuPYAFM+lA0nxOu23+TSYYDAAguSzV+e3vqvdjSycWcCgYEA5cot
Wcgnr8oPTjosO0Z7vser1cgSa4ehdoM/q3QlQYJ0ipYjNJvvQ/Aii8Fm9z5T4uZr
rMs5nF6tO33K79fp2Myd/hmTSf0T49l2dSo6+sxz/QmuRSDS1L4GU4241kBYQNsI
oS3fqFmu4ZCibLYUWRpYJ/FBztqGUNuisPbGc2MCgYEAnk0NtpBkwkNgw+QBhP4i
i5SUGQXNtAnhTj9vHldrmoKB5J71RhyNciJnGRd/2tFmZT0nDNj92y6iPPaygFEe
YD3kNXDHM4svxH29WVDieMHwoQAx/39BtnnJypKTFvn8JYuW7veDmbBVD66gqSZw
GAfvDidluGBPeEZ81xK2mAcCgYAwOoXYMS07NQKPXaBI9JsmSIwlO2+6R+Y4lIV5
e9AR9sp1B9vtv8ixDqaBhJ8Sx28d0VTKGIFH84sSUG2Wd0+qZA/I9B84yTgye0Lk
hm+Ikf7KHg0Ij0IQyq1TPgyMU0byncYq5hDqKaCN0Sh1/qU4qlHUWEuCmdTVBbQY
xkKSlwKBgFb5h4y4JF6NXblikGuJhV/sGENLC5nn1fMoXh7t1RuKD7ZtsNVBf5kP
BQnv39DZYuMEo6jF1T+0VgFOTSUm/QkV/1BvBpF14XDR/xVi7PXPbDErcbdN++Yk
DNjRIJ3NK/+tZ44f4a//l5gMHNAFHvLz4szHVn2r58pgkmjYlTb0
-----END RSA PRIVATE KEY-----
