Certificate:
    Data:
        Version: 3 (0x2)
        Serial Number: 6 (0x6)
    Signature Algorithm: sha256WithRSAEncryption
        Issuer: C=US, ST=Michigan, L=Mason, O=Dart Container Corp., OU=Koji Certificate Authority, CN=mdct-koji.dartcontainer.com
        Validity
            Not Before: Oct 23 16:02:59 2013 GMT
            Not After : Oct 21 16:02:59 2023 GMT
        Subject: C=US, ST=Michigan, O=Dart Container Corp., OU=builders, CN=mdct-koji.dartcontainer.com
        Subject Public Key Info:
            Public Key Algorithm: rsaEncryption
                Public-Key: (2048 bit)
                Modulus:
                    00:e8:10:1b:7f:81:ba:7d:45:07:fd:f8:90:df:07:
                    ef:ce:d1:5d:a1:21:9c:85:b1:ad:7b:52:2b:ac:b2:
                    28:7f:2d:46:7d:0c:23:ab:5d:e2:57:2f:d7:23:ee:
                    1a:d3:4b:9e:fa:35:71:77:f9:b2:aa:93:2b:dc:45:
                    6d:94:45:bd:a7:a6:02:65:09:bd:33:e1:7f:16:c0:
                    3e:b5:cf:c2:c3:67:07:50:99:11:d3:f3:1b:87:53:
                    3a:aa:38:ff:ea:79:e6:a7:96:47:36:5b:93:a2:7a:
                    a7:32:4e:e8:d1:4f:f7:5f:45:dc:ee:8d:e6:52:1e:
                    29:db:f2:da:1e:fe:c1:a6:29:2a:7b:4b:56:ab:9f:
                    fc:c8:af:76:43:2b:17:32:1c:dd:51:db:52:20:cf:
                    50:22:4a:48:60:01:9e:dc:ee:eb:18:97:c4:92:d6:
                    5f:80:9c:d4:66:b6:4d:10:d6:80:56:f4:45:bf:1f:
                    0a:06:ed:23:74:22:0e:b3:26:24:90:a7:b8:7f:af:
                    15:d2:7a:c7:9a:c3:67:f4:56:c1:98:6a:67:1f:46:
                    e0:37:58:8b:85:e9:f8:13:ef:d0:1d:66:17:f0:44:
                    9e:64:13:03:c9:fe:c5:ef:0b:b7:dd:ea:50:f0:33:
                    47:1a:02:d9:6d:a7:23:4d:db:8c:d9:54:83:93:d6:
                    76:b3
                Exponent: 65537 (0x10001)
        X509v3 extensions:
            X509v3 Basic Constraints: 
                CA:FALSE
            Netscape Comment: 
                OpenSSL Generated Certificate
            X509v3 Subject Key Identifier: 
                7A:86:93:19:AB:98:F1:C1:6A:B5:18:90:B7:90:B1:31:5C:3E:F3:95
            X509v3 Authority Key Identifier: 
                keyid:B1:86:A8:18:D4:2C:5C:F4:80:93:EA:C7:AE:5A:7A:DF:9C:77:37:FB
                DirName:/C=US/ST=Michigan/L=Mason/O=Dart Container Corp./OU=Koji Certificate Authority/CN=mdct-koji.dartcontainer.com
                serial:C7:C6:F9:BC:FB:5F:A1:26

    Signature Algorithm: sha256WithRSAEncryption
         4b:cb:69:24:bf:a2:ba:c8:68:5b:46:c4:8b:02:fc:a7:4b:ae:
         ad:95:4e:7e:91:32:64:92:93:47:31:18:f1:5b:09:05:7d:b3:
         ad:2d:c1:17:87:b0:c4:cd:fa:71:6f:6b:f6:ec:96:27:95:70:
         27:94:65:d7:4b:e5:d1:05:ad:54:0f:ee:b5:19:ec:83:3c:9f:
         42:f0:3c:12:6a:03:d6:6b:87:fb:2f:5a:51:04:35:47:0a:c2:
         d7:c0:78:ba:76:49:ed:e4:ac:c9:51:54:59:ba:e5:7c:f4:e9:
         05:8f:c0:65:14:e2:34:f4:e6:55:3c:7e:a8:f6:f9:53:ea:fb:
         60:76:25:4c:e8:41:5d:08:7c:a0:5a:52:9c:4b:4e:46:a2:9b:
         a1:5f:7d:46:20:c7:fa:5d:40:aa:53:be:a7:8d:1c:e6:ec:f9:
         49:17:f9:c8:ae:84:ac:5d:89:32:cd:75:9f:0c:01:b6:a1:cf:
         db:2f:26:35:2e:7c:84:e6:b0:3c:36:ed:50:46:fb:a6:ef:a1:
         bb:d4:72:6e:91:34:ef:eb:81:d6:e4:28:9f:e2:fb:47:de:22:
         e6:bf:72:92:e9:fd:8c:8f:c4:75:eb:b5:27:32:6f:3d:1b:84:
         a6:08:81:b4:ef:aa:5e:ab:41:04:c4:54:ad:4b:f3:2a:2c:a9:
         68:c9:4f:5e
-----BEGIN CERTIFICATE-----
MIIEvjCCA6agAwIBAgIBBjANBgkqhkiG9w0BAQsFADCBmjELMAkGA1UEBhMCVVMx
ETAPBgNVBAgTCE1pY2hpZ2FuMQ4wDAYDVQQHEwVNYXNvbjEdMBsGA1UEChMURGFy
dCBDb250YWluZXIgQ29ycC4xIzAhBgNVBAsTGktvamkgQ2VydGlmaWNhdGUgQXV0
aG9yaXR5MSQwIgYDVQQDExttZGN0LWtvamkuZGFydGNvbnRhaW5lci5jb20wHhcN
MTMxMDIzMTYwMjU5WhcNMjMxMDIxMTYwMjU5WjB4MQswCQYDVQQGEwJVUzERMA8G
A1UECBMITWljaGlnYW4xHTAbBgNVBAoTFERhcnQgQ29udGFpbmVyIENvcnAuMREw
DwYDVQQLEwhidWlsZGVyczEkMCIGA1UEAxMbbWRjdC1rb2ppLmRhcnRjb250YWlu
ZXIuY29tMIIBIjANBgkqhkiG9w0BAQEFAAOCAQ8AMIIBCgKCAQEA6BAbf4G6fUUH
/fiQ3wfvztFdoSGchbGte1IrrLIofy1GfQwjq13iVy/XI+4a00ue+jVxd/myqpMr
3EVtlEW9p6YCZQm9M+F/FsA+tc/Cw2cHUJkR0/Mbh1M6qjj/6nnmp5ZHNluTonqn
Mk7o0U/3X0Xc7o3mUh4p2/LaHv7Bpikqe0tWq5/8yK92QysXMhzdUdtSIM9QIkpI
YAGe3O7rGJfEktZfgJzUZrZNENaAVvRFvx8KBu0jdCIOsyYkkKe4f68V0nrHmsNn
9FbBmGpnH0bgN1iLhen4E+/QHWYX8ESeZBMDyf7F7wu33epQ8DNHGgLZbacjTduM
2VSDk9Z2swIDAQABo4IBLjCCASowCQYDVR0TBAIwADAsBglghkgBhvhCAQ0EHxYd
T3BlblNTTCBHZW5lcmF0ZWQgQ2VydGlmaWNhdGUwHQYDVR0OBBYEFHqGkxmrmPHB
arUYkLeQsTFcPvOVMIHPBgNVHSMEgccwgcSAFLGGqBjULFz0gJPqx65aet+cdzf7
oYGgpIGdMIGaMQswCQYDVQQGEwJVUzERMA8GA1UECBMITWljaGlnYW4xDjAMBgNV
BAcTBU1hc29uMR0wGwYDVQQKExREYXJ0IENvbnRhaW5lciBDb3JwLjEjMCEGA1UE
CxMaS29qaSBDZXJ0aWZpY2F0ZSBBdXRob3JpdHkxJDAiBgNVBAMTG21kY3Qta29q
aS5kYXJ0Y29udGFpbmVyLmNvbYIJAMfG+bz7X6EmMA0GCSqGSIb3DQEBCwUAA4IB
AQBLy2kkv6K6yGhbRsSLAvynS66tlU5+kTJkkpNHMRjxWwkFfbOtLcEXh7DEzfpx
b2v27JYnlXAnlGXXS+XRBa1UD+61GeyDPJ9C8DwSagPWa4f7L1pRBDVHCsLXwHi6
dknt5KzJUVRZuuV89OkFj8BlFOI09OZVPH6o9vlT6vtgdiVM6EFdCHygWlKcS05G
opuhX31GIMf6XUCqU76njRzm7PlJF/nIroSsXYkyzXWfDAG2oc/bLyY1LnyE5rA8
Nu1QRvum76G71HJukTTv64HW5Cif4vtH3iLmv3KS6f2Mj8R167UnMm89G4SmCIG0
76peq0EExFStS/MqLKloyU9e
-----END CERTIFICATE-----
-----BEGIN RSA PRIVATE KEY-----
MIIEowIBAAKCAQEA6BAbf4G6fUUH/fiQ3wfvztFdoSGchbGte1IrrLIofy1GfQwj
q13iVy/XI+4a00ue+jVxd/myqpMr3EVtlEW9p6YCZQm9M+F/FsA+tc/Cw2cHUJkR
0/Mbh1M6qjj/6nnmp5ZHNluTonqnMk7o0U/3X0Xc7o3mUh4p2/LaHv7Bpikqe0tW
q5/8yK92QysXMhzdUdtSIM9QIkpIYAGe3O7rGJfEktZfgJzUZrZNENaAVvRFvx8K
Bu0jdCIOsyYkkKe4f68V0nrHmsNn9FbBmGpnH0bgN1iLhen4E+/QHWYX8ESeZBMD
yf7F7wu33epQ8DNHGgLZbacjTduM2VSDk9Z2swIDAQABAoIBAQDXO5lFeZzt8sim
1ZQIR+QzfhvJBtOVbGXqqxu24MaOrf9im4+5sSnsk4KG4KAguVKJ3mePTxhW/IkB
k6M+kjCE/YPbEl1ZcRvejg+bsUaC1VwDdPUED8bIjHksyBET+Fvls4v47pbPa9MG
5gkpmXFl+/Ydi57DKxbH2UZU2RPidyeKf+R+2ETL0Sn8bS7XkMKkToEt50YS25QU
4gp+KsD+jIfkI6Y2toZO1PfvunZBhGoBd1qx30Y7pnMM8icJYyrTIljwSqFvsq95
xXUPQhkchJafzylcWgTji+FlDzyyoS+GJzBzGWwZGrRHzcxmXtGTejAy0tp3JzVX
fwMPQG2BAoGBAPspP46vDT9kEm6bK5eIsJY3XKs7+f4GZDVIoeF5eE2WTjv/OqBK
tBBAz/by8iKp0UwmFp7SQpRp/SdI+JbS55ZXXg1p1Gc3t2yXTntDzPC2/m7ju0zH
ykLEkmpHHV5FHVX+7lugcR6wZpd8G7FCdfpNdnXSHbiS7AuStEPRdbW/AoGBAOyI
qjXU1DlMiAxiJ+IGjWOE5IRFxDAai0a1CCPzCogKfC5GvVQ5oRRzJOjdMPVyZfnG
cgdvc86bLFJo4C13Fjw1moATUvH3AmqiA9UI18if0aCuOWhWvUB5AZjYKxFlwS8G
6LkIbNbxhtBRFiuOBU1lVKUv10JkIpk0E5HXysQNAoGAOOI3td4ptvC4R/q23cQk
knEJePLFhOX3riW8HDABsjjXkTkWExW4QHIdZ8XQV090yrVZrDDcyXZT0qDxRF+R
+ffholIUvCffUCXYrYxGj0Iyz/SeCB67zXFt48oleaNXqJFrdK8az6OOKMMAFp6B
z+XZbYfgGVyVP23DjBSVf0sCgYAL68tgUSytAp1sulm2O4xOsrjtrbJ4li3kz2Ts
ougp+RVPI8ORBiKHLFJ05gj8pdpb31OJ6mUUyZ9PO/focrMNL8psoAyzIzbc9vNo
fjyZ4Owow/8ishRxtmeNM3/gLZex7hA2myUZJC0ePKf4Y/0CbJP6i1G3B+Lyg7xk
wlJ21QKBgB+Pk2J3T8Xxt61pJMksKaEnsOlAkaB1FoiudktXoTDp+rMigUxPbhUS
NaQ5IHfjyBOQKLKGLJ0WW9CEGeJbEFBGlrVTsNjYN1kWG5/uvB4QU8lzjA3Utk/R
HM6WSybb1vvfJKD9Hi+9UxUzgJP+D2P2JcPnsODWxPuYsaH71DQZ
-----END RSA PRIVATE KEY-----
