Certificate:
    Data:
        Version: 3 (0x2)
        Serial Number: 6 (0x6)
    Signature Algorithm: sha256WithRSAEncryption
        Issuer: C=US, ST=Michigan, L=Mason, O=Dart Container Corp., OU=Koji Certificate Authority, CN=mdct-koji-f21.dartcontainer.com
        Validity
            Not Before: Mar 30 13:48:17 2015 GMT
            Not After : Mar 27 13:48:17 2025 GMT
        Subject: C=US, ST=Michigan, O=Dart Container Corp., OU=mdct-koji-f21.dartcontainer.com, CN=kojira
        Subject Public Key Info:
            Public Key Algorithm: rsaEncryption
                Public-Key: (2048 bit)
                Modulus:
                    00:d5:56:07:58:ad:bb:35:25:66:93:2e:db:63:df:
                    04:2d:43:af:11:59:66:35:d0:79:1c:34:30:62:44:
                    b1:a4:a9:3c:dc:b2:e5:bc:7c:21:d9:5f:66:4a:ea:
                    69:e8:e1:c1:3b:0a:c7:a9:0c:97:e2:c1:67:8f:62:
                    59:41:a0:9e:8a:2d:e1:e2:50:58:fe:c2:9d:69:3b:
                    e8:f2:f2:75:4b:d6:48:07:af:39:81:96:94:e3:4a:
                    41:c6:70:61:c2:ea:30:ff:6d:1b:af:f0:65:32:51:
                    9f:09:bd:bd:8d:38:e3:9b:72:7f:f7:79:c7:ce:72:
                    6d:6e:45:bd:06:0a:0a:1c:2d:12:f8:14:89:c9:e6:
                    ee:fc:9e:d6:73:36:2b:9c:85:a7:83:e4:48:65:fb:
                    bf:82:a8:95:1d:a6:9f:fe:98:28:28:1c:54:7c:e3:
                    4f:92:0d:c0:6c:6b:91:90:72:88:dc:0d:48:19:f9:
                    c5:96:4d:f3:46:98:1a:04:3d:70:d8:29:ca:da:ed:
                    38:65:3f:37:f7:ec:6b:af:ea:45:16:21:c5:2f:83:
                    d3:96:e5:48:95:3c:fe:88:c9:7c:f2:e9:1e:76:57:
                    13:46:87:10:8d:7f:91:32:7d:db:e8:27:54:04:f8:
                    f0:bf:c7:51:c0:08:56:a0:20:1d:81:14:61:32:1a:
                    a0:55
                Exponent: 65537 (0x10001)
        X509v3 extensions:
            X509v3 Basic Constraints: 
                CA:FALSE
            Netscape Comment: 
                OpenSSL Generated Certificate
            X509v3 Subject Key Identifier: 
                E9:CB:9B:B5:45:09:88:5C:89:1B:84:20:B3:16:0C:9A:0F:6B:FE:AF
            X509v3 Authority Key Identifier: 
                keyid:4D:E6:08:C1:37:BE:47:CE:CD:CE:13:DB:95:0F:6C:98:27:D3:4F:62
                DirName:/C=US/ST=Michigan/L=Mason/O=Dart Container Corp./OU=Koji Certificate Authority/CN=mdct-koji-f21.dartcontainer.com
                serial:ED:94:1F:27:EE:08:9C:31

    Signature Algorithm: sha256WithRSAEncryption
         00:6e:9c:c8:3d:23:1d:4c:59:9e:1c:a8:5a:d1:e5:84:e3:b8:
         2c:b9:05:83:3e:11:47:36:07:0b:e5:80:bf:50:23:13:ab:25:
         d5:95:18:df:be:cb:71:76:79:82:f5:c0:70:37:db:a8:4d:6f:
         80:cc:e7:0c:12:50:6c:d6:69:bc:ec:3f:3e:d9:4b:a3:0f:74:
         00:a5:d1:d2:37:64:28:47:f5:0b:ed:5b:0e:76:c4:6c:a8:b4:
         46:1f:99:43:be:f0:0f:4b:9b:f1:7e:54:c2:7f:ad:15:d2:eb:
         fc:8c:6d:d8:96:81:7d:bb:f9:bf:d5:6a:9b:11:73:9e:45:94:
         86:77:81:a8:99:fc:98:8d:1f:7a:e0:d4:1e:16:2d:b0:ca:f5:
         66:47:6f:cb:8b:4a:a2:bf:6a:d3:39:5d:3c:c0:0e:f1:58:0f:
         27:69:91:0e:03:d5:de:f5:f7:06:f7:0f:7e:22:c0:d5:9c:9b:
         94:88:da:64:80:d1:a4:d1:3f:83:b7:e4:11:59:66:e8:dd:49:
         6b:a1:0a:81:c9:0c:2b:db:c4:fb:7e:db:9e:a5:bd:96:0c:79:
         71:3b:17:11:e4:fd:d3:65:17:1e:5a:fd:95:0d:d7:ce:82:c0:
         79:3a:72:0b:00:6f:37:e2:8f:55:9d:2c:63:dc:84:3f:5a:80:
         21:c4:c4:e4
-----BEGIN CERTIFICATE-----
MIIEyDCCA7CgAwIBAgIBBjANBgkqhkiG9w0BAQsFADCBnjELMAkGA1UEBhMCVVMx
ETAPBgNVBAgTCE1pY2hpZ2FuMQ4wDAYDVQQHEwVNYXNvbjEdMBsGA1UEChMURGFy
dCBDb250YWluZXIgQ29ycC4xIzAhBgNVBAsTGktvamkgQ2VydGlmaWNhdGUgQXV0
aG9yaXR5MSgwJgYDVQQDEx9tZGN0LWtvamktZjIxLmRhcnRjb250YWluZXIuY29t
MB4XDTE1MDMzMDEzNDgxN1oXDTI1MDMyNzEzNDgxN1owejELMAkGA1UEBhMCVVMx
ETAPBgNVBAgTCE1pY2hpZ2FuMR0wGwYDVQQKExREYXJ0IENvbnRhaW5lciBDb3Jw
LjEoMCYGA1UECxMfbWRjdC1rb2ppLWYyMS5kYXJ0Y29udGFpbmVyLmNvbTEPMA0G
A1UEAxMGa29qaXJhMIIBIjANBgkqhkiG9w0BAQEFAAOCAQ8AMIIBCgKCAQEA1VYH
WK27NSVmky7bY98ELUOvEVlmNdB5HDQwYkSxpKk83LLlvHwh2V9mSupp6OHBOwrH
qQyX4sFnj2JZQaCeii3h4lBY/sKdaTvo8vJ1S9ZIB685gZaU40pBxnBhwuow/20b
r/BlMlGfCb29jTjjm3J/93nHznJtbkW9BgoKHC0S+BSJyebu/J7WczYrnIWng+RI
Zfu/gqiVHaaf/pgoKBxUfONPkg3AbGuRkHKI3A1IGfnFlk3zRpgaBD1w2CnK2u04
ZT839+xrr+pFFiHFL4PTluVIlTz+iMl88ukedlcTRocQjX+RMn3b6CdUBPjwv8dR
wAhWoCAdgRRhMhqgVQIDAQABo4IBMjCCAS4wCQYDVR0TBAIwADAsBglghkgBhvhC
AQ0EHxYdT3BlblNTTCBHZW5lcmF0ZWQgQ2VydGlmaWNhdGUwHQYDVR0OBBYEFOnL
m7VFCYhciRuEILMWDJoPa/6vMIHTBgNVHSMEgcswgciAFE3mCME3vkfOzc4T25UP
bJgn009ioYGkpIGhMIGeMQswCQYDVQQGEwJVUzERMA8GA1UECBMITWljaGlnYW4x
DjAMBgNVBAcTBU1hc29uMR0wGwYDVQQKExREYXJ0IENvbnRhaW5lciBDb3JwLjEj
MCEGA1UECxMaS29qaSBDZXJ0aWZpY2F0ZSBBdXRob3JpdHkxKDAmBgNVBAMTH21k
Y3Qta29qaS1mMjEuZGFydGNvbnRhaW5lci5jb22CCQDtlB8n7gicMTANBgkqhkiG
9w0BAQsFAAOCAQEAAG6cyD0jHUxZnhyoWtHlhOO4LLkFgz4RRzYHC+WAv1AjE6sl
1ZUY377LcXZ5gvXAcDfbqE1vgMznDBJQbNZpvOw/PtlLow90AKXR0jdkKEf1C+1b
DnbEbKi0Rh+ZQ77wD0ub8X5Uwn+tFdLr/Ixt2JaBfbv5v9VqmxFznkWUhneBqJn8
mI0feuDUHhYtsMr1Zkdvy4tKor9q0zldPMAO8VgPJ2mRDgPV3vX3BvcPfiLA1Zyb
lIjaZIDRpNE/g7fkEVlm6N1Ja6EKgckMK9vE+37bnqW9lgx5cTsXEeT902UXHlr9
lQ3XzoLAeTpyCwBvN+KPVZ0sY9yEP1qAIcTE5A==
-----END CERTIFICATE-----
-----BEGIN RSA PRIVATE KEY-----
MIIEpQIBAAKCAQEA1VYHWK27NSVmky7bY98ELUOvEVlmNdB5HDQwYkSxpKk83LLl
vHwh2V9mSupp6OHBOwrHqQyX4sFnj2JZQaCeii3h4lBY/sKdaTvo8vJ1S9ZIB685
gZaU40pBxnBhwuow/20br/BlMlGfCb29jTjjm3J/93nHznJtbkW9BgoKHC0S+BSJ
yebu/J7WczYrnIWng+RIZfu/gqiVHaaf/pgoKBxUfONPkg3AbGuRkHKI3A1IGfnF
lk3zRpgaBD1w2CnK2u04ZT839+xrr+pFFiHFL4PTluVIlTz+iMl88ukedlcTRocQ
jX+RMn3b6CdUBPjwv8dRwAhWoCAdgRRhMhqgVQIDAQABAoIBAQCthziajVZFuJJj
Di4uYm1HVFLGze0xwM2Cf4ELrczBn1d+PZZZZq8x3UOblGlpoJhIqlAV1cSGEcNn
AhyQIVJUG1YtfCWntC3ON4kYdNesRDR667DfE9kvuGsgOrGKlmwcmGd5CRWHhJTU
m53fjXK2MsCcUFaSOsmAdQF4NBpdJ1/4x/4gHrw6NkS832Y8376o5fJjL3nCcc05
ITsD81XNVQc4FimLk5K7sp8YUu4hYP6rJ0ss+wYy2yQGBMdL0JRvSicbL2/MTSl7
Lsyq48AEmbEYUeGxyo5l75motM2hHlyTX69byu/SoW7SbfmxCrsqD2DvsknjvzYw
qgcJVwxRAoGBAPfy1Mk2rwa6ta/tasr7cRD6z1DYs9HEqjx2rp0vdziuamHVzCNE
jNs4e6HAcSUOz3GW3qIWw6NFdvjSaaYF9SaeXY0tuue8eJ2wRZcQaTWzj2eW8cW9
sUwCtv9qn3EaT6rDbEvEwT2QRfqBwuwLNP9rIPV8ynH2tlGumpfHB66/AoGBANxD
d7HIk8N8lSdt+XbkKxp17XAkLcy7Tm5Egp+Rr8Qd/xHhoh/ANwtbD0q3FNsqbeE1
/bzODn6T158pmhnYN/uUwc/1Hi7xr0lqYxTSS829QfEXFXt8iBq2LnX2ZuIPYnOM
jeA3oHBrrXPZ2rvY71q1R1tdQTCHLWS1S8hJt4nrAoGAS1dkRQfywy60ypJv4uHo
h2pO2Jgge9swh1Lg2C52IakN9lCKySSpUGunVY0uVD5d1nwrhkE4jUIsVotJQwOI
bIWuk5mTs5rXY8MOQkrgTUsUhjudl6J+X0Rr6syxSiLellrva06MEXLncKlBW4xE
PGCHEVEsCtkWqVdO7lOyB+0CgYEAsSPJRT9MJrEwuw8ky0rgp10j4UYXV0lj4CZU
7sOZmZ2OHvFZEzPgkM9g0vO+YCwVRkPHlmoZGg8IH8azWgmbrEaMQBSfe51/HQnk
OUCPGh0UxTGNY0xZoTHW16OcRj2dLdRh3WqfKwpN6pfP47apeEfF5WJwJPjxtsZe
9erjIpUCgYEAuqORHiaaBNT49CrFuZpbbCJftuQMysJ9FLADzzDxJhURGQCd4Cxs
KEYq912ybdsPFEfDT4EvFTb2A77kF0YOlcGArCq2aU7dvhfOJtgj7dMwok2Sudld
GGaxVvrQ5vL5akjXSoAiay9r28YpZhssfUWFr3j5cwW3HjsoTwdBu9c=
-----END RSA PRIVATE KEY-----
