Certificate:
    Data:
        Version: 3 (0x2)
        Serial Number: 8 (0x8)
    Signature Algorithm: sha256WithRSAEncryption
        Issuer: C=US, ST=Michigan, L=Mason, O=Dart Container Corp., OU=Koji Certificate Authority, CN=mdct-koji-f21.dartcontainer.com
        Validity
            Not Before: Apr  7 15:13:18 2015 GMT
            Not After : Apr  4 15:13:18 2025 GMT
        Subject: C=US, ST=Michigan, O=Dart Container Corp., OU=kojid, CN=mdct-koji-b2-f21.dartcontainer.com
        Subject Public Key Info:
            Public Key Algorithm: rsaEncryption
                Public-Key: (2048 bit)
                Modulus:
                    00:d1:ec:5f:53:79:3b:ac:16:06:9f:1a:8d:0c:fa:
                    ca:49:fd:c3:fe:99:81:1a:c5:57:88:d7:fb:d6:47:
                    2c:e1:49:80:43:21:21:f7:75:20:3c:13:42:66:04:
                    f1:4b:84:2f:5c:6c:29:56:c0:68:e5:ee:67:71:d3:
                    d2:d4:75:e5:92:c8:67:27:d5:6e:22:bf:1c:ec:42:
                    b9:8a:04:62:26:3d:80:9e:18:a8:be:b0:89:65:78:
                    b0:97:50:d4:4c:20:b0:90:32:a7:c8:3c:4d:63:9a:
                    17:d6:8a:ec:69:14:e8:f0:13:46:57:a0:7d:76:e8:
                    0a:fe:90:d4:77:68:23:55:fc:70:c8:a7:3d:65:7b:
                    38:9c:a5:aa:94:65:1a:56:14:14:ed:63:f5:d3:1e:
                    97:f4:1a:31:c0:89:19:ed:71:4b:4e:ae:a7:d5:bb:
                    90:f3:03:2e:eb:49:eb:d8:fe:77:ad:fe:a5:13:97:
                    f8:7a:95:88:c2:10:2f:17:49:1f:db:b6:51:02:89:
                    19:cf:f6:a6:b4:a8:de:9b:06:09:3f:be:08:27:d2:
                    cf:e6:ed:09:70:7f:22:12:05:a5:dc:03:a9:91:bd:
                    40:64:93:39:f4:fa:9d:12:f0:5f:54:04:56:b1:e7:
                    6a:d6:67:da:6b:d2:1a:ac:80:a9:ed:1b:1d:da:98:
                    50:97
                Exponent: 65537 (0x10001)
        X509v3 extensions:
            X509v3 Basic Constraints: 
                CA:FALSE
            Netscape Comment: 
                OpenSSL Generated Certificate
            X509v3 Subject Key Identifier: 
                1C:DB:2F:E3:AC:B6:A8:02:29:C4:14:D0:26:74:71:17:7B:64:35:E1
            X509v3 Authority Key Identifier: 
                keyid:4D:E6:08:C1:37:BE:47:CE:CD:CE:13:DB:95:0F:6C:98:27:D3:4F:62
                DirName:/C=US/ST=Michigan/L=Mason/O=Dart Container Corp./OU=Koji Certificate Authority/CN=mdct-koji-f21.dartcontainer.com
                serial:ED:94:1F:27:EE:08:9C:31

    Signature Algorithm: sha256WithRSAEncryption
         be:92:63:99:2a:ae:69:27:c6:60:fb:85:d6:1f:05:7e:8f:af:
         7d:6b:38:61:bc:69:52:73:7c:ec:6c:e3:61:b6:ba:a7:94:14:
         1c:fd:37:b0:ea:94:9a:3d:ac:29:43:3c:1a:31:3f:d2:f0:1a:
         32:e3:e5:df:9f:9a:25:d8:71:72:89:82:d9:24:18:59:54:a4:
         00:5a:a3:65:53:b0:9e:91:9c:52:69:d3:5a:9f:ee:d4:96:44:
         4f:a3:55:71:ce:7d:37:b2:a3:f9:47:28:2e:45:65:dd:48:e2:
         49:81:7a:2e:34:ce:1f:fb:27:27:d6:3b:dd:e1:07:15:84:1f:
         e9:b8:ce:d2:00:ee:e6:36:d0:fa:63:c8:d8:0a:c7:c3:d7:ac:
         b7:f3:00:73:93:7d:a5:88:41:c2:ed:f2:e6:6c:4e:2d:37:e4:
         8a:ee:de:f2:be:32:31:f4:61:66:2b:1c:77:58:32:80:36:05:
         10:bb:01:09:bf:d5:9a:2c:04:af:26:66:1c:ef:2c:31:b8:d7:
         14:c9:6e:73:93:f6:88:e4:a9:7c:e3:74:eb:70:eb:05:b6:df:
         bb:b2:f7:a3:2d:38:a4:1f:52:4d:c1:db:cb:7a:72:49:6c:05:
         91:03:b7:d3:41:f6:b1:0c:37:46:8c:b2:78:c6:23:e6:a3:cc:
         27:98:42:2c
-----BEGIN CERTIFICATE-----
MIIEyjCCA7KgAwIBAgIBCDANBgkqhkiG9w0BAQsFADCBnjELMAkGA1UEBhMCVVMx
ETAPBgNVBAgTCE1pY2hpZ2FuMQ4wDAYDVQQHEwVNYXNvbjEdMBsGA1UEChMURGFy
dCBDb250YWluZXIgQ29ycC4xIzAhBgNVBAsTGktvamkgQ2VydGlmaWNhdGUgQXV0
aG9yaXR5MSgwJgYDVQQDEx9tZGN0LWtvamktZjIxLmRhcnRjb250YWluZXIuY29t
MB4XDTE1MDQwNzE1MTMxOFoXDTI1MDQwNDE1MTMxOFowfDELMAkGA1UEBhMCVVMx
ETAPBgNVBAgTCE1pY2hpZ2FuMR0wGwYDVQQKExREYXJ0IENvbnRhaW5lciBDb3Jw
LjEOMAwGA1UECxMFa29qaWQxKzApBgNVBAMTIm1kY3Qta29qaS1iMi1mMjEuZGFy
dGNvbnRhaW5lci5jb20wggEiMA0GCSqGSIb3DQEBAQUAA4IBDwAwggEKAoIBAQDR
7F9TeTusFgafGo0M+spJ/cP+mYEaxVeI1/vWRyzhSYBDISH3dSA8E0JmBPFLhC9c
bClWwGjl7mdx09LUdeWSyGcn1W4ivxzsQrmKBGImPYCeGKi+sIlleLCXUNRMILCQ
MqfIPE1jmhfWiuxpFOjwE0ZXoH126Ar+kNR3aCNV/HDIpz1lezicpaqUZRpWFBTt
Y/XTHpf0GjHAiRntcUtOrqfVu5DzAy7rSevY/net/qUTl/h6lYjCEC8XSR/btlEC
iRnP9qa0qN6bBgk/vggn0s/m7QlwfyISBaXcA6mRvUBkkzn0+p0S8F9UBFax52rW
Z9pr0hqsgKntGx3amFCXAgMBAAGjggEyMIIBLjAJBgNVHRMEAjAAMCwGCWCGSAGG
+EIBDQQfFh1PcGVuU1NMIEdlbmVyYXRlZCBDZXJ0aWZpY2F0ZTAdBgNVHQ4EFgQU
HNsv46y2qAIpxBTQJnRxF3tkNeEwgdMGA1UdIwSByzCByIAUTeYIwTe+R87NzhPb
lQ9smCfTT2KhgaSkgaEwgZ4xCzAJBgNVBAYTAlVTMREwDwYDVQQIEwhNaWNoaWdh
bjEOMAwGA1UEBxMFTWFzb24xHTAbBgNVBAoTFERhcnQgQ29udGFpbmVyIENvcnAu
MSMwIQYDVQQLExpLb2ppIENlcnRpZmljYXRlIEF1dGhvcml0eTEoMCYGA1UEAxMf
bWRjdC1rb2ppLWYyMS5kYXJ0Y29udGFpbmVyLmNvbYIJAO2UHyfuCJwxMA0GCSqG
SIb3DQEBCwUAA4IBAQC+kmOZKq5pJ8Zg+4XWHwV+j699azhhvGlSc3zsbONhtrqn
lBQc/Tew6pSaPawpQzwaMT/S8Boy4+Xfn5ol2HFyiYLZJBhZVKQAWqNlU7CekZxS
adNan+7UlkRPo1Vxzn03sqP5RyguRWXdSOJJgXouNM4f+ycn1jvd4QcVhB/puM7S
AO7mNtD6Y8jYCsfD16y38wBzk32liEHC7fLmbE4tN+SK7t7yvjIx9GFmKxx3WDKA
NgUQuwEJv9WaLASvJmYc7ywxuNcUyW5zk/aI5Kl843TrcOsFtt+7svejLTikH1JN
wdvLenJJbAWRA7fTQfaxDDdGjLJ4xiPmo8wnmEIs
-----END CERTIFICATE-----
-----BEGIN RSA PRIVATE KEY-----
MIIEpQIBAAKCAQEA0exfU3k7rBYGnxqNDPrKSf3D/pmBGsVXiNf71kcs4UmAQyEh
93UgPBNCZgTxS4QvXGwpVsBo5e5ncdPS1HXlkshnJ9VuIr8c7EK5igRiJj2Anhio
vrCJZXiwl1DUTCCwkDKnyDxNY5oX1orsaRTo8BNGV6B9dugK/pDUd2gjVfxwyKc9
ZXs4nKWqlGUaVhQU7WP10x6X9BoxwIkZ7XFLTq6n1buQ8wMu60nr2P53rf6lE5f4
epWIwhAvF0kf27ZRAokZz/amtKjemwYJP74IJ9LP5u0JcH8iEgWl3AOpkb1AZJM5
9PqdEvBfVARWsedq1mfaa9IarICp7Rsd2phQlwIDAQABAoIBAQCwZ+MfgXQ8w3Gj
CCvZ6XJOxVqLvDF67rUFgQLXaY50b1DCmLgzfBCvizu0AZlH7XfjQd1nUl+UQUha
pje4ZK6cL55IIhngRxumCthh/BcCrZJEyNIdFLsRM1+qeLk+lAXr1zWZldsuxRId
LzdFgtXQ0VG+V1a3sn1yuQBiq3duTCQ89sZcslsG6xma5+2EFookTpYL/dL9Ajiu
f80cvkPeH1hE3jMH0swiUVDqDy5z5GUJaH1EcG26WaB2a5XdgYX0c3eqbvAluHo/
h2SRgm/YpOw03bG638PPTiLCPaMX8YjObSYH8hf7TVRL3YxVqBSE5KQigZiXpz/C
bs23KjrJAoGBAO1ZbdWJbwIUPpQ++4FCv6rzuoicffO79TsOdAGxpr7gu7JnP+FX
yLa8mGWyEWLIIGUmtGCRBtYmbxE2cNerxVPyVuOT8rTLg6700wyAYbcasBeAQz5k
i3oxGv9gdYyHs9C1qSHjdbLMdDHGew0f9FCpK8k35DFHgATEgtvAyKzbAoGBAOJr
PGJAXZka4bffvIOC+WNuWLvbSGpX2ZipCM+RT23H7ApE7dwefXK3Ipg95d6fhmZ/
nNGZWLEsMANn1C0XaitnLeI4W+YZzTJ5s7IateE+WVunKPEqVf5e3obtfokBG+tb
rkpgmyhvrEIJkKGB075Vjv1MPdlvfXAsV+fIdJn1AoGBALdPsnyRwKKicBKe8jBL
FS07QH3yH3T3XddWulH0mwwhFdYb2EJ6QhKgZjNk6/iXCC4XToimedk7pdxtZ4mq
qKTFLkZmJbVs2S9u9vFY1h9NBWOhNE4j6XVeJ7PFFASNaltvckkyG90T+0nWOYNR
gqgpgB/QgvVse3szKr3+jv6xAoGAab+uDzGCxaxxeeCsejvk4JS8KtkrBEgNoChq
rg9vKpXyX4V8Fo/DBZ4VMUfPod+d9SdrBdX6P52kuyJ2Ta0e8DCblInAGkM4vHds
/yVMh2wIbi8vhxu/2DNU+W3Y6II1GQLT73cZYJRvvtQa0eQCEmaBhzphtLlGu+pq
EB5mnzUCgYEA2DQqYAtiqV/EThIrm36YgvngnLrYr9YHycjhSkVbbUrKbO8ZHY9o
GkwgG3eQm/m5Ii/RKVFKlExsD7fyIjLq+nNnc/50grJL/Bk3CbGxzt4wbxH4UUgv
oxw/EffhAvKxS9UcSXv/bb3qZoRd9ldP+4Sg2Si3sLaNW9kImhuZols=
-----END RSA PRIVATE KEY-----
