Certificate:
    Data:
        Version: 3 (0x2)
        Serial Number: 16 (0x10)
    Signature Algorithm: sha256WithRSAEncryption
        Issuer: C=US, ST=Michigan, L=Mason, O=Dart Container Corp., OU=Koji Certificate Authority, CN=mdct-koji-f21.dartcontainer.com
        Validity
            Not Before: Jan 22 18:19:51 2016 GMT
            Not After : Jan 19 18:19:51 2026 GMT
        Subject: C=US, ST=Michigan, O=Dart Container Corp., OU=mdct-koji-f21.dartcontainer.com, CN=koji-gc
        Subject Public Key Info:
            Public Key Algorithm: rsaEncryption
                Public-Key: (2048 bit)
                Modulus:
                    00:be:87:71:40:a7:b6:19:94:b6:61:47:69:c8:36:
                    cb:5e:41:83:b7:5d:f1:b4:97:1c:35:0e:47:60:fa:
                    95:1d:4f:61:02:1f:18:75:31:84:2d:f2:7d:fb:56:
                    b3:4b:4d:b3:9b:66:12:9e:78:8a:36:98:ad:7a:e8:
                    aa:5f:bb:de:41:f1:b0:12:25:7f:fd:df:a3:0b:64:
                    5a:6c:2b:e5:94:39:62:29:47:30:85:f1:8e:8f:2c:
                    54:fd:93:98:7c:94:24:ad:66:07:35:16:92:aa:56:
                    4a:a2:7a:76:51:35:30:e3:ee:37:49:13:58:34:e4:
                    44:ed:e6:e8:24:f3:13:fd:38:18:5c:e1:bc:98:ff:
                    c8:b3:37:b7:f3:57:73:e6:96:41:98:05:ee:c8:cd:
                    50:40:44:e4:ff:9d:18:77:9c:97:8f:c8:36:67:44:
                    48:c1:a4:c6:8a:2f:49:02:dd:21:fc:5e:7e:26:c5:
                    9d:ac:a8:81:7c:05:35:5e:9b:d3:2e:7e:28:24:ca:
                    87:c5:98:07:5f:65:8d:48:3f:f5:0c:99:65:9e:db:
                    a3:a0:ef:e9:e1:87:cd:7e:a5:2f:60:96:cb:6a:19:
                    96:c8:5f:f1:3f:75:5f:c4:d4:58:16:cb:35:55:64:
                    26:3f:61:de:10:17:de:25:1c:ee:ff:2a:9e:c6:0d:
                    ed:cf
                Exponent: 65537 (0x10001)
        X509v3 extensions:
            X509v3 Basic Constraints: 
                CA:FALSE
            Netscape Comment: 
                OpenSSL Generated Certificate
            X509v3 Subject Key Identifier: 
                D2:51:2A:60:B1:70:49:A5:3E:66:61:25:0C:7F:5C:F2:F7:BA:3A:EF
            X509v3 Authority Key Identifier: 
                keyid:4D:E6:08:C1:37:BE:47:CE:CD:CE:13:DB:95:0F:6C:98:27:D3:4F:62
                DirName:/C=US/ST=Michigan/L=Mason/O=Dart Container Corp./OU=Koji Certificate Authority/CN=mdct-koji-f21.dartcontainer.com
                serial:ED:94:1F:27:EE:08:9C:31

    Signature Algorithm: sha256WithRSAEncryption
         77:dc:20:b1:c1:c6:07:93:5b:ea:f9:46:a7:81:78:6b:52:7d:
         81:a1:8e:8f:5f:07:7c:72:68:9f:cf:05:85:64:9a:4e:b2:e6:
         eb:93:b5:d0:d0:73:5b:4a:01:b9:1a:fb:f4:d7:1f:92:3f:33:
         a5:7a:bb:87:77:db:93:45:33:61:43:29:ae:1c:a0:e6:e4:f9:
         ee:f0:55:4d:c2:b7:b2:14:52:bf:c5:c8:f8:3e:92:86:e5:7b:
         a1:77:27:0c:19:a0:40:ed:f6:23:98:4c:d7:65:eb:cf:9f:fa:
         66:01:39:12:08:cf:e1:a3:89:a5:23:1d:9d:3d:44:12:d9:c6:
         70:a1:78:3e:72:74:6d:9c:91:a4:9f:b6:09:ae:84:42:40:05:
         61:b0:af:27:90:fe:94:91:b7:f8:6e:1a:6e:a6:0e:bf:7a:ab:
         79:43:bc:95:7e:e4:c0:42:70:4b:cd:d7:70:01:cf:9e:3e:3e:
         73:f6:9d:bf:6d:cd:bf:5c:0b:5e:34:8f:4f:53:06:67:1f:09:
         22:28:63:73:82:c7:2b:2f:05:fb:61:1b:1c:c7:52:24:7e:54:
         4e:bc:f5:09:45:91:eb:ee:c0:da:d1:a3:36:52:d3:d1:e0:30:
         fa:a0:a4:0f:8f:0c:22:b9:a4:34:45:e7:f7:0d:96:95:ca:27:
         80:91:c4:c7
-----BEGIN CERTIFICATE-----
MIIEyTCCA7GgAwIBAgIBEDANBgkqhkiG9w0BAQsFADCBnjELMAkGA1UEBhMCVVMx
ETAPBgNVBAgTCE1pY2hpZ2FuMQ4wDAYDVQQHEwVNYXNvbjEdMBsGA1UEChMURGFy
dCBDb250YWluZXIgQ29ycC4xIzAhBgNVBAsTGktvamkgQ2VydGlmaWNhdGUgQXV0
aG9yaXR5MSgwJgYDVQQDEx9tZGN0LWtvamktZjIxLmRhcnRjb250YWluZXIuY29t
MB4XDTE2MDEyMjE4MTk1MVoXDTI2MDExOTE4MTk1MVowezELMAkGA1UEBhMCVVMx
ETAPBgNVBAgTCE1pY2hpZ2FuMR0wGwYDVQQKExREYXJ0IENvbnRhaW5lciBDb3Jw
LjEoMCYGA1UECxMfbWRjdC1rb2ppLWYyMS5kYXJ0Y29udGFpbmVyLmNvbTEQMA4G
A1UEAxMHa29qaS1nYzCCASIwDQYJKoZIhvcNAQEBBQADggEPADCCAQoCggEBAL6H
cUCnthmUtmFHacg2y15Bg7dd8bSXHDUOR2D6lR1PYQIfGHUxhC3yfftWs0tNs5tm
Ep54ijaYrXroql+73kHxsBIlf/3fowtkWmwr5ZQ5YilHMIXxjo8sVP2TmHyUJK1m
BzUWkqpWSqJ6dlE1MOPuN0kTWDTkRO3m6CTzE/04GFzhvJj/yLM3t/NXc+aWQZgF
7sjNUEBE5P+dGHecl4/INmdESMGkxoovSQLdIfxefibFnayogXwFNV6b0y5+KCTK
h8WYB19ljUg/9QyZZZ7bo6Dv6eGHzX6lL2CWy2oZlshf8T91X8TUWBbLNVVkJj9h
3hAX3iUc7v8qnsYN7c8CAwEAAaOCATIwggEuMAkGA1UdEwQCMAAwLAYJYIZIAYb4
QgENBB8WHU9wZW5TU0wgR2VuZXJhdGVkIENlcnRpZmljYXRlMB0GA1UdDgQWBBTS
USpgsXBJpT5mYSUMf1zy97o67zCB0wYDVR0jBIHLMIHIgBRN5gjBN75Hzs3OE9uV
D2yYJ9NPYqGBpKSBoTCBnjELMAkGA1UEBhMCVVMxETAPBgNVBAgTCE1pY2hpZ2Fu
MQ4wDAYDVQQHEwVNYXNvbjEdMBsGA1UEChMURGFydCBDb250YWluZXIgQ29ycC4x
IzAhBgNVBAsTGktvamkgQ2VydGlmaWNhdGUgQXV0aG9yaXR5MSgwJgYDVQQDEx9t
ZGN0LWtvamktZjIxLmRhcnRjb250YWluZXIuY29tggkA7ZQfJ+4InDEwDQYJKoZI
hvcNAQELBQADggEBAHfcILHBxgeTW+r5RqeBeGtSfYGhjo9fB3xyaJ/PBYVkmk6y
5uuTtdDQc1tKAbka+/TXH5I/M6V6u4d325NFM2FDKa4coObk+e7wVU3Ct7IUUr/F
yPg+koble6F3JwwZoEDt9iOYTNdl68+f+mYBORIIz+GjiaUjHZ09RBLZxnCheD5y
dG2ckaSftgmuhEJABWGwryeQ/pSRt/huGm6mDr96q3lDvJV+5MBCcEvN13ABz54+
PnP2nb9tzb9cC140j09TBmcfCSIoY3OCxysvBfthGxzHUiR+VE689QlFkevuwNrR
ozZS09HgMPqgpA+PDCK5pDRF5/cNlpXKJ4CRxMc=
-----END CERTIFICATE-----
-----BEGIN RSA PRIVATE KEY-----
MIIEpAIBAAKCAQEAvodxQKe2GZS2YUdpyDbLXkGDt13xtJccNQ5HYPqVHU9hAh8Y
dTGELfJ9+1azS02zm2YSnniKNpiteuiqX7veQfGwEiV//d+jC2RabCvllDliKUcw
hfGOjyxU/ZOYfJQkrWYHNRaSqlZKonp2UTUw4+43SRNYNORE7eboJPMT/TgYXOG8
mP/Isze381dz5pZBmAXuyM1QQETk/50Yd5yXj8g2Z0RIwaTGii9JAt0h/F5+JsWd
rKiBfAU1XpvTLn4oJMqHxZgHX2WNSD/1DJllntujoO/p4YfNfqUvYJbLahmWyF/x
P3VfxNRYFss1VWQmP2HeEBfeJRzu/yqexg3tzwIDAQABAoIBADCJIlGdJ6d2mctI
POtTAhWdzOcOWH9vqzDc1VQgIZJY4VaAA2P/XDO0PWGkoYICZkmlBAM4o8Tque7A
jH5cxm64GelVgjhzGv7Q7rP1rsNGpvnq97J3aaCRY4lBayv5NSqy/g0JFg2sc9DW
L4Pab/zwd0b3VZYLvH96PhMDlUkA619vWc3B3sRFCGrhIn9liOzPGvaFDmCh6UYX
uMVqWZnZAXOc7daaC2yjCxNcJwmQ7WZrI3ifsGLb1Kk0PqcssJUcHk3NafCfylqm
bs0CZ/f8lHnVloGH+M075RuoKd9eVc8d1UuPA83StuOKRrAWScbQ9jCrFl/P4L+5
GIcEs4kCgYEA7q5HC0V0EXsGssV+d8JdHUYpnYxzILFGGnGuelhyYwFf2qbCzwIy
nKJtnwccYht4F7jsOgZDp5SIQp8BVgr8XV8ZRyrJ5AjbkwHVmDVQRt9jKIkN+3KL
pk+eCW8+Brp3R8oq5S3xoVSOYT8d73neMAWYcoWdX8Dw1zqiO7LUje0CgYEAzFqz
g8CTNLnAPnPicK/C8WflH1w3RaD+LeclHdYBO5duFrWJQh+fRpWqsrufeAM/oPf/
6OfOWTanYnSjJ5l/EP1IUOAOvmzDEPJ7FcbYL5/jv/t3wQcmzpTCBIGemzManaob
KDsYcmJ+15p2FSLTkaYcFdCI8/VF+7Z1ZlbnkysCgYBH1VO0ZLbF/AzMCPxC9tAn
W1JzBC4yDKhYlRY55BypB2Td3YqL2tF4qrnrPqygKjw+h30xCWmbKezIgCpaxvuk
7lYhQRN5+eB7ofWy1XjPm7OwI2992b+F0jhyBnTYeY4koQe/6c/rChO/2Msdo8Pn
GAgFj4kJpHvXiuIArZWjEQKBgQDCGt0spjys9kr+h0Bs3OYEOzVNJmBxyMvmegmt
X1roaZvuAh0QK800VHFBOCnu6tcDZM01Qwmjf+BaCoP21zv0vUB1YX1frxtR+6Ci
PK+X/P1tm8RSGyLnUjE/6obm0BHV9H+7JPbBn4Dv9g13Yg8n52oB5oRPhYgl4Vd+
D8oC5QKBgQCGuWkJzJolaoR1bQCKJJkeGba7ZOQanFaSfjbo/WEfDzssggD+qn7s
Qbhq4lNghh/uAFKI1SIzuyFEEqQ9YLzExcrdqKSLyg/3BGQKx6vBVIZGpDWdFUyi
kMcO+U3GNKphCP4ZwrHsz4sjaNdzt+0kakeVggETq3IBK/aUebLSgQ==
-----END RSA PRIVATE KEY-----
