Certificate:
    Data:
        Version: 3 (0x2)
        Serial Number: 7 (0x7)
    Signature Algorithm: sha256WithRSAEncryption
        Issuer: C=US, ST=Michigan, L=Mason, O=Dart Container Corp., OU=Koji Certificate Authority, CN=mdct-koji-f21.dartcontainer.com
        Validity
            Not Before: Mar 31 17:49:43 2015 GMT
            Not After : Mar 28 17:49:43 2025 GMT
        Subject: C=US, ST=Michigan, O=Dart Container Corp., OU=kojid, CN=mdct-koji-b1-f21.dartcontainer.com
        Subject Public Key Info:
            Public Key Algorithm: rsaEncryption
                Public-Key: (2048 bit)
                Modulus:
                    00:ea:26:3b:61:3a:b7:72:d0:a0:17:20:50:d6:9a:
                    86:32:22:6d:4d:d4:23:45:f8:cd:d4:24:b9:ec:fc:
                    de:d7:9b:32:0d:00:dc:a9:4e:70:f6:c9:2f:c7:d6:
                    d2:4c:13:a8:94:54:bc:83:0d:04:9f:7b:62:ad:38:
                    be:86:d3:93:75:ed:aa:c6:20:8c:49:41:a6:ab:b8:
                    2b:89:01:68:7b:50:85:be:7b:e6:4e:63:15:ec:b7:
                    03:1c:54:46:96:99:11:35:0f:97:19:99:ce:13:23:
                    2a:f6:c3:42:f6:d6:66:af:2f:83:88:9c:c2:15:97:
                    a6:b6:a8:b5:99:16:31:6f:fb:7f:21:94:fb:99:39:
                    ff:43:a3:3f:92:46:f1:e6:1d:5e:98:83:17:28:5e:
                    d2:4d:c2:ca:31:cf:60:ce:72:29:8c:56:fc:11:cc:
                    41:7e:2a:06:5f:f5:3d:6c:f2:b0:35:e7:a1:17:60:
                    82:b2:b0:20:89:9e:58:6a:7b:c0:b1:b8:a7:4f:ae:
                    39:0e:05:1d:c9:43:af:47:4a:bc:1e:7f:bd:4c:91:
                    20:b0:39:44:45:a3:20:db:98:41:d3:87:a9:92:4c:
                    34:af:48:5e:36:cb:94:59:4a:1a:88:d0:af:4e:5d:
                    6c:23:35:3c:28:a5:9b:6c:de:2a:08:da:a0:78:8a:
                    47:27
                Exponent: 65537 (0x10001)
        X509v3 extensions:
            X509v3 Basic Constraints: 
                CA:FALSE
            Netscape Comment: 
                OpenSSL Generated Certificate
            X509v3 Subject Key Identifier: 
                5D:DF:89:F8:03:62:FC:43:EC:56:4E:4D:95:65:F1:3C:32:A2:02:64
            X509v3 Authority Key Identifier: 
                keyid:4D:E6:08:C1:37:BE:47:CE:CD:CE:13:DB:95:0F:6C:98:27:D3:4F:62
                DirName:/C=US/ST=Michigan/L=Mason/O=Dart Container Corp./OU=Koji Certificate Authority/CN=mdct-koji-f21.dartcontainer.com
                serial:ED:94:1F:27:EE:08:9C:31

    Signature Algorithm: sha256WithRSAEncryption
         bc:15:2b:b6:0e:1b:f7:1d:0c:bb:1c:82:08:27:13:21:00:99:
         e5:53:b9:4f:38:44:dc:06:72:d5:1f:90:bd:95:84:45:a6:cd:
         58:7d:87:3d:5e:f5:a5:fc:8a:77:b9:0e:c0:26:69:a4:4e:a4:
         7d:05:3a:0b:4c:ed:8c:7e:5b:db:33:02:6e:2e:5a:3f:4c:b6:
         b7:d3:18:d5:c4:63:37:6d:5a:7a:6b:34:3a:27:e2:36:72:1d:
         d3:4d:ab:9e:34:94:58:7e:c2:83:30:c3:28:4a:9a:c9:2e:73:
         ab:ef:45:82:b7:c1:a9:f7:0d:c2:06:c1:10:d0:2b:1d:30:bc:
         ce:48:57:40:6e:59:fb:48:39:86:23:37:34:66:f1:20:91:0a:
         e9:d2:5c:71:1e:1b:ef:5b:15:96:e8:4a:3a:7f:7f:55:c2:63:
         70:bf:ac:70:2c:f5:ab:a0:00:34:de:7e:23:96:1f:e0:69:f1:
         58:aa:a2:07:47:0b:8c:b0:c0:5c:0d:30:6c:e0:b2:a4:74:20:
         4e:0b:57:42:fa:0d:f7:23:77:78:57:94:d5:af:99:3e:57:7a:
         27:d1:58:cc:e5:c5:a2:3c:1a:83:ea:97:71:61:ec:b9:c6:53:
         ca:98:32:06:8e:03:d6:a3:d4:22:55:59:cd:fd:36:6d:34:b6:
         e0:68:41:f3
-----BEGIN CERTIFICATE-----
MIIEyjCCA7KgAwIBAgIBBzANBgkqhkiG9w0BAQsFADCBnjELMAkGA1UEBhMCVVMx
ETAPBgNVBAgTCE1pY2hpZ2FuMQ4wDAYDVQQHEwVNYXNvbjEdMBsGA1UEChMURGFy
dCBDb250YWluZXIgQ29ycC4xIzAhBgNVBAsTGktvamkgQ2VydGlmaWNhdGUgQXV0
aG9yaXR5MSgwJgYDVQQDEx9tZGN0LWtvamktZjIxLmRhcnRjb250YWluZXIuY29t
MB4XDTE1MDMzMTE3NDk0M1oXDTI1MDMyODE3NDk0M1owfDELMAkGA1UEBhMCVVMx
ETAPBgNVBAgTCE1pY2hpZ2FuMR0wGwYDVQQKExREYXJ0IENvbnRhaW5lciBDb3Jw
LjEOMAwGA1UECxMFa29qaWQxKzApBgNVBAMTIm1kY3Qta29qaS1iMS1mMjEuZGFy
dGNvbnRhaW5lci5jb20wggEiMA0GCSqGSIb3DQEBAQUAA4IBDwAwggEKAoIBAQDq
JjthOrdy0KAXIFDWmoYyIm1N1CNF+M3UJLns/N7XmzINANypTnD2yS/H1tJME6iU
VLyDDQSfe2KtOL6G05N17arGIIxJQaaruCuJAWh7UIW+e+ZOYxXstwMcVEaWmRE1
D5cZmc4TIyr2w0L21mavL4OInMIVl6a2qLWZFjFv+38hlPuZOf9Doz+SRvHmHV6Y
gxcoXtJNwsoxz2DOcimMVvwRzEF+KgZf9T1s8rA156EXYIKysCCJnlhqe8CxuKdP
rjkOBR3JQ69HSrwef71MkSCwOURFoyDbmEHTh6mSTDSvSF42y5RZShqI0K9OXWwj
NTwopZts3ioI2qB4ikcnAgMBAAGjggEyMIIBLjAJBgNVHRMEAjAAMCwGCWCGSAGG
+EIBDQQfFh1PcGVuU1NMIEdlbmVyYXRlZCBDZXJ0aWZpY2F0ZTAdBgNVHQ4EFgQU
Xd+J+ANi/EPsVk5NlWXxPDKiAmQwgdMGA1UdIwSByzCByIAUTeYIwTe+R87NzhPb
lQ9smCfTT2KhgaSkgaEwgZ4xCzAJBgNVBAYTAlVTMREwDwYDVQQIEwhNaWNoaWdh
bjEOMAwGA1UEBxMFTWFzb24xHTAbBgNVBAoTFERhcnQgQ29udGFpbmVyIENvcnAu
MSMwIQYDVQQLExpLb2ppIENlcnRpZmljYXRlIEF1dGhvcml0eTEoMCYGA1UEAxMf
bWRjdC1rb2ppLWYyMS5kYXJ0Y29udGFpbmVyLmNvbYIJAO2UHyfuCJwxMA0GCSqG
SIb3DQEBCwUAA4IBAQC8FSu2Dhv3HQy7HIIIJxMhAJnlU7lPOETcBnLVH5C9lYRF
ps1YfYc9XvWl/Ip3uQ7AJmmkTqR9BToLTO2MflvbMwJuLlo/TLa30xjVxGM3bVp6
azQ6J+I2ch3TTaueNJRYfsKDMMMoSprJLnOr70WCt8Gp9w3CBsEQ0CsdMLzOSFdA
bln7SDmGIzc0ZvEgkQrp0lxxHhvvWxWW6Eo6f39VwmNwv6xwLPWroAA03n4jlh/g
afFYqqIHRwuMsMBcDTBs4LKkdCBOC1dC+g33I3d4V5TVr5k+V3on0VjM5cWiPBqD
6pdxYey5xlPKmDIGjgPWo9QiVVnN/TZtNLbgaEHz
-----END CERTIFICATE-----
-----BEGIN RSA PRIVATE KEY-----
MIIEpAIBAAKCAQEA6iY7YTq3ctCgFyBQ1pqGMiJtTdQjRfjN1CS57Pze15syDQDc
qU5w9skvx9bSTBOolFS8gw0En3tirTi+htOTde2qxiCMSUGmq7griQFoe1CFvnvm
TmMV7LcDHFRGlpkRNQ+XGZnOEyMq9sNC9tZmry+DiJzCFZemtqi1mRYxb/t/IZT7
mTn/Q6M/kkbx5h1emIMXKF7STcLKMc9gznIpjFb8EcxBfioGX/U9bPKwNeehF2CC
srAgiZ5YanvAsbinT645DgUdyUOvR0q8Hn+9TJEgsDlERaMg25hB04epkkw0r0he
NsuUWUoaiNCvTl1sIzU8KKWbbN4qCNqgeIpHJwIDAQABAoIBACGDP1R3NvJz8bXd
pjRRAYwDaWmOR04ogi0u5H2K48owKEW8Ldj9pSVtPi14Dbldxu8UAbcwEc1Rt5nb
WUmq1pw2XA7ncay6fMRvI6wES5P6vmm5CgmGHQk4WHWhikjbt57EkHfVj60lh2yy
Hc9+eEvynPzcktrMTcwu8W7rwj+olTDFQuh9FGQIrQ6Clkp0Q8ilhdUn7yMukszm
hNtBCQXl07KZKrhmMnCGNF06hcL/TzNRkRsJjC7TsybV6S+fsCojHHivEK9zHV8L
Eaefvl0IQ0BPFVtT70YIwT3QQ0p4IyitIjlKsLA3MTqCcLeACcB+3c/19lvOBGku
dDEdD4ECgYEA/yYx3iutaQNdmUgO9gvY3dyYcj6VuptHKJPNty+/Q9/v8CgcgdxM
4P8P0kfbipGDgJs1l+72W3ZNb8ocdFbLvUClMknQ3RueAlriytgCZH6C+GhCPPEu
fK32GtWH2qS+st2yKnt+CIavANXxxFORl1vErQMEgXo75YKklnfOH/cCgYEA6u4c
YfAdbfABD+DFjaxY2zW2gNCE9qSuVy2+zbTO8iXUR9WvYpP5c8vdGPTeTD8NtvTj
Epg0RzGrBx/aHLdCEkrFKWDfnBfDrKVvPNsHm+wdNwDVJBWmBgxyB19WIWJ83nsC
Fywoe+n4nkq7rXcCYZd/c8cYd+TCW3i0hx8oplECgYEA0gDo6JkAiL95aXESx1bm
72zimJ2EdWvavL4ygoUtIruNbBhHpmbhbArjRctZGos8Nj0Jdnz7jjon8Evk8aiC
1sj/bw2seGCDxCJ0KkpyZa5vM+/0HN7RyVMRjfKUd9RDFUs9mpO8H15jagetj07N
NUwV6+Tg74ThCb1mpGYFZO8CgYEAjVVwh88PtWr1CJtd3ix4THCU+gv4YfWS2Omx
Z0nGUlFF022PlMuW//3+Zpwx/EbWtmG/FhmxIb+Ut7WG3020lxKaaJlaDSsS0hO4
xzCx9DDpJoT+tTW86tij5SGKzIzWuHXiPRSYymto4bnuDJ6TNSkSSRHW+5IJB0Sn
vr6VEvECgYBbPuXsaZMzNtQXBAm1L0EDi5GiysRQohF31qTmg7Tcy9URAUL4ha9A
xkc8FrQgAi4+bCiERneqdE3LXV0dNiFhvummIO5AT2LUr1PyH0qgGRpz5awEYm5Z
oxbCn/NDBIEO/5k/2jfPudnGlU/UURwivNw0g5F+cKH68QVbuB28Og==
-----END RSA PRIVATE KEY-----
