Certificate:
    Data:
        Version: 3 (0x2)
        Serial Number: 10 (0xa)
    Signature Algorithm: sha256WithRSAEncryption
        Issuer: C=US, ST=Michigan, L=Mason, O=Dart Container Corp., OU=Koji Certificate Authority, CN=mdct-koji-f21.dartcontainer.com
        Validity
            Not Before: Apr 30 14:57:24 2015 GMT
            Not After : Apr 27 14:57:24 2025 GMT
        Subject: C=US, ST=Michigan, O=Dart Container Corp., OU=Koji Users, CN=ass
        Subject Public Key Info:
            Public Key Algorithm: rsaEncryption
                Public-Key: (2048 bit)
                Modulus:
                    00:b8:04:7f:c0:0d:ef:1a:bc:ea:bc:ba:78:a7:ff:
                    81:1c:e6:dc:0e:0c:5c:18:8a:bc:07:2a:37:e3:4e:
                    cd:65:e9:0c:d8:54:80:1d:18:9c:28:6c:a9:ed:f8:
                    3c:b9:6c:14:eb:0a:50:92:bf:1b:19:c2:f7:a7:61:
                    7c:b4:d7:80:56:8d:75:22:b3:aa:b5:8b:8a:d7:43:
                    e2:41:7b:4f:72:ca:40:e2:6d:da:3a:7d:38:7d:3e:
                    48:53:46:71:fb:6f:9f:5c:05:a3:6d:29:19:7b:82:
                    c5:2a:05:33:03:82:b0:44:30:4a:11:72:dd:8f:53:
                    d1:68:83:e6:c0:ef:73:75:9b:d5:f3:9d:40:9b:4d:
                    4c:b9:ba:8f:81:ec:a6:82:66:fc:c3:cb:7e:b0:e0:
                    67:ce:81:69:1a:75:1b:db:ef:85:24:35:2d:95:06:
                    85:0c:f9:69:eb:28:fd:4e:49:22:58:35:b9:07:a6:
                    18:2a:46:0b:f0:4d:2c:cc:0a:74:6d:cd:d7:22:3b:
                    10:87:ce:43:ef:6a:43:87:5b:61:51:83:36:39:ea:
                    fd:27:79:1b:5a:7f:db:6c:ef:57:e3:13:f3:4b:37:
                    3f:76:98:9d:81:1d:1e:83:43:0b:11:fe:20:1e:db:
                    2e:ad:83:d9:90:26:a4:c7:5b:64:d6:b1:f3:7a:19:
                    5a:11
                Exponent: 65537 (0x10001)
        X509v3 extensions:
            X509v3 Basic Constraints: 
                CA:FALSE
            Netscape Comment: 
                OpenSSL Generated Certificate
            X509v3 Subject Key Identifier: 
                63:75:E2:EE:E4:96:83:8F:36:6F:13:E3:62:50:EF:AA:2F:E3:0E:D3
            X509v3 Authority Key Identifier: 
                keyid:4D:E6:08:C1:37:BE:47:CE:CD:CE:13:DB:95:0F:6C:98:27:D3:4F:62
                DirName:/C=US/ST=Michigan/L=Mason/O=Dart Container Corp./OU=Koji Certificate Authority/CN=mdct-koji-f21.dartcontainer.com
                serial:ED:94:1F:27:EE:08:9C:31

    Signature Algorithm: sha256WithRSAEncryption
         01:7b:e1:6b:04:57:3b:3a:7f:8d:8b:cc:cb:1a:3e:ac:5a:3f:
         ec:4e:b3:05:c8:c9:d2:a8:e5:9c:49:06:4c:44:b7:34:7f:a7:
         85:84:8b:fd:f0:d6:30:b2:9c:a6:08:de:2a:a6:5e:a4:18:c9:
         af:b8:eb:71:f6:c6:68:24:15:3b:e6:e6:05:00:e1:04:40:93:
         50:e3:eb:6e:a3:e6:87:a8:47:cf:9e:d6:64:b4:f6:11:07:d0:
         0d:9f:7f:ce:5c:ca:07:32:70:9f:2f:f4:7d:e2:d7:7a:cd:21:
         24:25:df:ed:f3:af:51:7c:76:2c:5c:56:95:e8:95:71:6b:40:
         b2:8e:75:63:73:a9:c4:a4:18:24:78:94:01:7a:d4:4f:11:27:
         b5:40:eb:bb:6f:f2:6c:a1:bd:bb:49:76:58:76:dc:55:32:66:
         28:40:a2:b1:c5:06:e3:df:81:5f:03:b2:19:a4:9f:68:5d:f2:
         8e:02:ea:1f:0d:db:e1:29:2e:cb:8b:53:0d:63:c9:24:4f:d3:
         3a:96:70:6b:0c:50:19:16:92:3f:2b:80:a4:41:51:3c:27:59:
         3b:1d:3d:0e:d9:0c:10:2c:1a:08:b1:83:02:76:b6:05:7d:ac:
         50:d4:a4:c6:c3:a5:43:85:57:fa:df:26:e7:4f:ee:c4:96:2d:
         05:5e:2f:e1
-----BEGIN CERTIFICATE-----
MIIEsDCCA5igAwIBAgIBCjANBgkqhkiG9w0BAQsFADCBnjELMAkGA1UEBhMCVVMx
ETAPBgNVBAgTCE1pY2hpZ2FuMQ4wDAYDVQQHEwVNYXNvbjEdMBsGA1UEChMURGFy
dCBDb250YWluZXIgQ29ycC4xIzAhBgNVBAsTGktvamkgQ2VydGlmaWNhdGUgQXV0
aG9yaXR5MSgwJgYDVQQDEx9tZGN0LWtvamktZjIxLmRhcnRjb250YWluZXIuY29t
MB4XDTE1MDQzMDE0NTcyNFoXDTI1MDQyNzE0NTcyNFowYjELMAkGA1UEBhMCVVMx
ETAPBgNVBAgTCE1pY2hpZ2FuMR0wGwYDVQQKExREYXJ0IENvbnRhaW5lciBDb3Jw
LjETMBEGA1UECxMKS29qaSBVc2VyczEMMAoGA1UEAxMDYXNzMIIBIjANBgkqhkiG
9w0BAQEFAAOCAQ8AMIIBCgKCAQEAuAR/wA3vGrzqvLp4p/+BHObcDgxcGIq8Byo3
407NZekM2FSAHRicKGyp7fg8uWwU6wpQkr8bGcL3p2F8tNeAVo11IrOqtYuK10Pi
QXtPcspA4m3aOn04fT5IU0Zx+2+fXAWjbSkZe4LFKgUzA4KwRDBKEXLdj1PRaIPm
wO9zdZvV851Am01MubqPgeymgmb8w8t+sOBnzoFpGnUb2++FJDUtlQaFDPlp6yj9
TkkiWDW5B6YYKkYL8E0szAp0bc3XIjsQh85D72pDh1thUYM2Oer9J3kbWn/bbO9X
4xPzSzc/dpidgR0eg0MLEf4gHtsurYPZkCakx1tk1rHzehlaEQIDAQABo4IBMjCC
AS4wCQYDVR0TBAIwADAsBglghkgBhvhCAQ0EHxYdT3BlblNTTCBHZW5lcmF0ZWQg
Q2VydGlmaWNhdGUwHQYDVR0OBBYEFGN14u7kloOPNm8T42JQ76ov4w7TMIHTBgNV
HSMEgcswgciAFE3mCME3vkfOzc4T25UPbJgn009ioYGkpIGhMIGeMQswCQYDVQQG
EwJVUzERMA8GA1UECBMITWljaGlnYW4xDjAMBgNVBAcTBU1hc29uMR0wGwYDVQQK
ExREYXJ0IENvbnRhaW5lciBDb3JwLjEjMCEGA1UECxMaS29qaSBDZXJ0aWZpY2F0
ZSBBdXRob3JpdHkxKDAmBgNVBAMTH21kY3Qta29qaS1mMjEuZGFydGNvbnRhaW5l
ci5jb22CCQDtlB8n7gicMTANBgkqhkiG9w0BAQsFAAOCAQEAAXvhawRXOzp/jYvM
yxo+rFo/7E6zBcjJ0qjlnEkGTES3NH+nhYSL/fDWMLKcpgjeKqZepBjJr7jrcfbG
aCQVO+bmBQDhBECTUOPrbqPmh6hHz57WZLT2EQfQDZ9/zlzKBzJwny/0feLXes0h
JCXf7fOvUXx2LFxWleiVcWtAso51Y3OpxKQYJHiUAXrUTxEntUDru2/ybKG9u0l2
WHbcVTJmKECiscUG49+BXwOyGaSfaF3yjgLqHw3b4Skuy4tTDWPJJE/TOpZwawxQ
GRaSPyuApEFRPCdZOx09DtkMECwaCLGDAna2BX2sUNSkxsOlQ4VX+t8m50/uxJYt
BV4v4Q==
-----END CERTIFICATE-----
-----BEGIN RSA PRIVATE KEY-----
MIIEpAIBAAKCAQEAuAR/wA3vGrzqvLp4p/+BHObcDgxcGIq8Byo3407NZekM2FSA
HRicKGyp7fg8uWwU6wpQkr8bGcL3p2F8tNeAVo11IrOqtYuK10PiQXtPcspA4m3a
On04fT5IU0Zx+2+fXAWjbSkZe4LFKgUzA4KwRDBKEXLdj1PRaIPmwO9zdZvV851A
m01MubqPgeymgmb8w8t+sOBnzoFpGnUb2++FJDUtlQaFDPlp6yj9TkkiWDW5B6YY
KkYL8E0szAp0bc3XIjsQh85D72pDh1thUYM2Oer9J3kbWn/bbO9X4xPzSzc/dpid
gR0eg0MLEf4gHtsurYPZkCakx1tk1rHzehlaEQIDAQABAoIBAEFOB3BHAaYBiWS0
4IDuYgm5vDqYFE75XUVFrFPU8XvLOy3CvzyUMUb/WUcEo7hCLSJEpNePTrTTxkP2
iuU63WbaCMnp7RlEjl9azf7jHgzkziYNSjcbnWKFKfGzvFu4/1sO/TKONWbpv8Lr
2XDTfm6UnJSYqRxmaJioxsmNsPH5Y0tgBN8zi0JH+jCQA3/rqUqDj3VCFaly2bAq
umlPw7AjxMKasHoLtIAsIDQjN5/2zOylzViVD7gLM++xYAlSx/IQCh2O1KaFyajK
nPH+06xtcBfENEkr8MR/ReIk6yCDnmsvPkuxGxHgcz8wVppFbosaO9tVEniAr7TG
uJkCpqkCgYEA7Qv9JIL/PqGYEBRfUpSeX3mvrFBVIDyYWFjtcTlVBimqdLzu1Fqq
JTPoRQBv8FlXTpuy40B6sE12t9rtQazY68vd+lPiSg7ujTIUWc+AQFmPGzgLmfif
rL/Cfb8/k95UZdsMuBIjbW7PHHyfpOpZ9MATEjYptRkM/7uiMorsAy8CgYEAxrsT
qHyB+xkiQBwkbke95v19pumhPUXH1Xu4HOMUkwMtZSSeeDkCyTgSSdXVuD7bzuvd
b1sjvZX+UwIus8qtiUGJ4hQJApn9ZPD0/H6DjCbV1YGTMVMUca6bDLZeE/Ig1LvS
lrOOKtQAWLHQzUnQW34sb9nVsAVyV2WeNnKWJr8CgYEA3IRlpxyyJGqhknvRPXqC
ZmFGeq90sXuNYcrAgK8MGKKULus/5o69b8R9FAvXFqmWHcucO+pU+EPn6Bui0ZDh
b2IFC4YToj+HzhRDeFUfgz2Nco3NxRvUNxlg7igHFiEjNGn1yBsfmAMYavDIdtuI
ebZhR3TZkd5PCGxd9FTmQAMCgYBnxdyYCJwfMJqv+4ISjCff7NKmTC1EP6IAGmCj
xPhDZE9aF2sgwDRyOnNiVuUJFtnVDVlOAruBDkgFtIgKnnVLzQthILEryJmHEkP7
bVzn3Iegu87O3OE6E8EnPDuYEsGOFJ38z7oXJykfJ4svB7JjdFlj9s4c4ls4w/l/
2QoLJQKBgQCzF8ijYLpay3E50nCM7JtmGVIx0sWu7VRC754jJV4XILU5oQ7TkfVk
4ESWqVdDW4dGAIeJEKiSsRl5kF00H1K6lUk3QoqUe/12YYMkF8omntq+Mt2xHBxd
WvB6BNmBnW1Pvtv0f+bBuVMaAc/gk68eZ04lTrx2PMl8r4OIYvo6XA==
-----END RSA PRIVATE KEY-----
