Certificate:
    Data:
        Version: 3 (0x2)
        Serial Number: 5 (0x5)
    Signature Algorithm: sha256WithRSAEncryption
        Issuer: C=US, ST=Michigan, L=Mason, O=Dart Container Corp., OU=Koji Certificate Authority, CN=mdct-koji-f21.dartcontainer.com
        Validity
            Not Before: Mar 27 20:35:13 2015 GMT
            Not After : Mar 24 20:35:13 2025 GMT
        Subject: C=US, ST=Michigan, O=Dart Container Corp., OU=mdct-koji-b1-f21.dartcontainer.com, CN=kojid
        Subject Public Key Info:
            Public Key Algorithm: rsaEncryption
                Public-Key: (2048 bit)
                Modulus:
                    00:ae:5d:1a:ae:52:5e:08:4d:1f:cf:53:fa:7d:4a:
                    e2:bb:3d:a0:b3:7b:e0:21:3c:82:26:85:68:40:70:
                    40:3c:72:2d:5e:78:b2:88:6f:69:0e:48:00:67:8a:
                    e2:81:ff:c2:ac:46:47:e3:bc:d4:7f:30:76:aa:61:
                    fb:69:d8:2c:cd:e8:85:89:c7:0c:7d:ea:5b:16:fd:
                    1f:6b:e2:7b:e5:00:ab:81:52:9d:22:9c:03:7b:fe:
                    5b:af:b4:f7:f7:bc:88:2e:32:8a:ff:f7:70:be:59:
                    77:c7:da:29:5b:38:d8:31:78:7c:5a:5a:3a:92:bc:
                    f6:7b:b4:04:7c:63:58:1d:8e:6d:b8:f2:6d:e3:45:
                    ed:ed:c6:2e:58:18:41:7c:49:ac:bc:6a:2b:26:28:
                    3d:d6:6b:a1:7d:e3:71:21:15:94:71:3a:a1:c2:77:
                    f7:ec:7f:bd:0e:7f:39:fd:7e:75:e4:45:ed:f5:51:
                    61:87:e3:bb:6c:6c:12:20:4f:52:28:6e:a7:4e:fd:
                    ae:c7:77:4b:65:e5:0a:8a:aa:08:50:92:f9:3f:dd:
                    ea:f0:f9:14:39:0b:3d:e5:2b:69:26:d5:01:cb:7f:
                    1e:75:dd:0b:ba:84:10:c1:30:93:65:05:99:c3:16:
                    d7:0e:21:44:23:39:1e:33:65:c5:27:6b:d8:6b:e9:
                    42:7f
                Exponent: 65537 (0x10001)
        X509v3 extensions:
            X509v3 Basic Constraints: 
                CA:FALSE
            Netscape Comment: 
                OpenSSL Generated Certificate
            X509v3 Subject Key Identifier: 
                9A:76:2B:04:9D:84:34:B2:68:B3:78:43:20:39:7A:44:78:DF:A6:7A
            X509v3 Authority Key Identifier: 
                keyid:4D:E6:08:C1:37:BE:47:CE:CD:CE:13:DB:95:0F:6C:98:27:D3:4F:62
                DirName:/C=US/ST=Michigan/L=Mason/O=Dart Container Corp./OU=Koji Certificate Authority/CN=mdct-koji-f21.dartcontainer.com
                serial:ED:94:1F:27:EE:08:9C:31

    Signature Algorithm: sha256WithRSAEncryption
         46:d5:a7:1c:ec:df:f8:94:7c:ac:91:80:b7:dc:db:f9:b2:b4:
         d4:b5:a3:32:eb:78:e0:c4:ef:b1:d5:72:f8:64:02:48:dc:4e:
         55:91:e6:f1:26:ce:82:1e:57:ea:66:0f:88:9e:d1:c0:98:94:
         39:7e:cf:b4:21:8b:85:e0:d3:62:ee:f1:a2:0f:3f:bf:1f:f3:
         eb:bb:d3:fa:e5:a0:eb:1a:57:99:fe:35:a6:fd:68:bb:ce:3f:
         ff:87:f4:4b:49:d7:51:66:17:08:2e:8f:01:30:b2:1a:9b:82:
         18:c6:06:10:3a:0a:a9:b7:d7:27:3d:95:ae:ea:55:68:f8:7a:
         b5:3f:80:99:3d:f3:37:44:3b:e7:fe:bf:6f:e2:84:3e:49:4d:
         f5:19:e8:b6:d7:3d:f5:5b:fb:22:d2:90:60:e7:f8:13:6a:fe:
         6c:a2:c0:fa:ed:6c:7b:33:6b:90:56:54:27:c3:b4:df:ec:24:
         8f:3c:1d:5e:4b:d9:77:1f:3c:68:ae:9e:88:87:41:7f:c1:a3:
         43:56:7d:01:c8:bd:62:a1:ae:10:44:fa:1b:15:e0:20:7f:b9:
         10:d8:be:6c:9f:dd:1f:58:63:31:6b:f6:08:29:1f:de:8c:86:
         13:37:80:f8:c8:e2:cf:ef:a2:72:42:a0:2d:c3:9f:fe:b1:f8:
         a5:5a:f1:91
-----BEGIN CERTIFICATE-----
MIIEyjCCA7KgAwIBAgIBBTANBgkqhkiG9w0BAQsFADCBnjELMAkGA1UEBhMCVVMx
ETAPBgNVBAgTCE1pY2hpZ2FuMQ4wDAYDVQQHEwVNYXNvbjEdMBsGA1UEChMURGFy
dCBDb250YWluZXIgQ29ycC4xIzAhBgNVBAsTGktvamkgQ2VydGlmaWNhdGUgQXV0
aG9yaXR5MSgwJgYDVQQDEx9tZGN0LWtvamktZjIxLmRhcnRjb250YWluZXIuY29t
MB4XDTE1MDMyNzIwMzUxM1oXDTI1MDMyNDIwMzUxM1owfDELMAkGA1UEBhMCVVMx
ETAPBgNVBAgTCE1pY2hpZ2FuMR0wGwYDVQQKExREYXJ0IENvbnRhaW5lciBDb3Jw
LjErMCkGA1UECxMibWRjdC1rb2ppLWIxLWYyMS5kYXJ0Y29udGFpbmVyLmNvbTEO
MAwGA1UEAxMFa29qaWQwggEiMA0GCSqGSIb3DQEBAQUAA4IBDwAwggEKAoIBAQCu
XRquUl4ITR/PU/p9SuK7PaCze+AhPIImhWhAcEA8ci1eeLKIb2kOSABniuKB/8Ks
RkfjvNR/MHaqYftp2CzN6IWJxwx96lsW/R9r4nvlAKuBUp0inAN7/luvtPf3vIgu
Mor/93C+WXfH2ilbONgxeHxaWjqSvPZ7tAR8Y1gdjm248m3jRe3txi5YGEF8Say8
aismKD3Wa6F943EhFZRxOqHCd/fsf70Ofzn9fnXkRe31UWGH47tsbBIgT1IobqdO
/a7Hd0tl5QqKqghQkvk/3erw+RQ5Cz3lK2km1QHLfx513Qu6hBDBMJNlBZnDFtcO
IUQjOR4zZcUna9hr6UJ/AgMBAAGjggEyMIIBLjAJBgNVHRMEAjAAMCwGCWCGSAGG
+EIBDQQfFh1PcGVuU1NMIEdlbmVyYXRlZCBDZXJ0aWZpY2F0ZTAdBgNVHQ4EFgQU
mnYrBJ2ENLJos3hDIDl6RHjfpnowgdMGA1UdIwSByzCByIAUTeYIwTe+R87NzhPb
lQ9smCfTT2KhgaSkgaEwgZ4xCzAJBgNVBAYTAlVTMREwDwYDVQQIEwhNaWNoaWdh
bjEOMAwGA1UEBxMFTWFzb24xHTAbBgNVBAoTFERhcnQgQ29udGFpbmVyIENvcnAu
MSMwIQYDVQQLExpLb2ppIENlcnRpZmljYXRlIEF1dGhvcml0eTEoMCYGA1UEAxMf
bWRjdC1rb2ppLWYyMS5kYXJ0Y29udGFpbmVyLmNvbYIJAO2UHyfuCJwxMA0GCSqG
SIb3DQEBCwUAA4IBAQBG1acc7N/4lHyskYC33Nv5srTUtaMy63jgxO+x1XL4ZAJI
3E5VkebxJs6CHlfqZg+IntHAmJQ5fs+0IYuF4NNi7vGiDz+/H/Pru9P65aDrGleZ
/jWm/Wi7zj//h/RLSddRZhcILo8BMLIam4IYxgYQOgqpt9cnPZWu6lVo+Hq1P4CZ
PfM3RDvn/r9v4oQ+SU31Gei21z31W/si0pBg5/gTav5sosD67Wx7M2uQVlQnw7Tf
7CSPPB1eS9l3Hzxorp6Ih0F/waNDVn0ByL1ioa4QRPobFeAgf7kQ2L5sn90fWGMx
a/YIKR/ejIYTN4D4yOLP76JyQqAtw5/+sfilWvGR
-----END CERTIFICATE-----
-----BEGIN RSA PRIVATE KEY-----
MIIEogIBAAKCAQEArl0arlJeCE0fz1P6fUriuz2gs3vgITyCJoVoQHBAPHItXniy
iG9pDkgAZ4rigf/CrEZH47zUfzB2qmH7adgszeiFiccMfepbFv0fa+J75QCrgVKd
IpwDe/5br7T397yILjKK//dwvll3x9opWzjYMXh8Wlo6krz2e7QEfGNYHY5tuPJt
40Xt7cYuWBhBfEmsvGorJig91muhfeNxIRWUcTqhwnf37H+9Dn85/X515EXt9VFh
h+O7bGwSIE9SKG6nTv2ux3dLZeUKiqoIUJL5P93q8PkUOQs95StpJtUBy38edd0L
uoQQwTCTZQWZwxbXDiFEIzkeM2XFJ2vYa+lCfwIDAQABAoIBAHhlt5epLl7jClT5
8tvzCo4p5r4oikHI60G4Gp1sJR7X5DX4d6a37z26P/U/NFp5hS25tcguSjis+TN7
RsP2TjG8HgFd3WVQnqdIDxtKnywog0RgDDqqqclDgIHaHuMEXrAvnEVU0ZfOZWQt
YyMnJDk8rfkhlpJeQoB2dCaD3oNBAsj7nwIVzZZrG4Nad2qqRHs7bv8Ni9iDT3uY
3T7V1upN0mYhQ2GIXG+IF5zNiE8KOrT8dNx0GDRFffqH2BxSEkv9vsAJ6mBoGZSg
d4xn1JTIitaM9pxCEn8BWW86lDhGdx51j1aXD7pIT7ryjrA50Dwb1BX4gq04wMsj
L97mLeECgYEA271xfY7Tn7smdFmztXMbJ3VTvu7oRcbsi6eUOQ5ROAEsQoNAY/Lw
GLELme48j35GDcnnbwqujP7/cxJrCRxpJxxXldkObE1WPgN+MCV7rjNPMBz9lcd1
JyrjgHlvVgQVTTAtA/CoDhffDDuZJKByNOi5waGa0Q0TqBxqYcDRz88CgYEAyyLP
/Dp2709rkwOJAKfo8u/69M8bBez7TykwfZsxWhPxfoxAY40mdFTTyJT2NpcLGz1Y
jAGBKeCH29bpWyppChD3X8mYYgni5D0HfbH/vLUr/7VLOVRxWmLM9gTlKvZbjE6g
rC65E3vOmD6nL5DUNPQaPRP8gsH6h8gN4u7f3lECgYBz7VMFiadt+p9D/NsJXEu0
GnrvHT1fKp4641MYcsw4fq3p/TKoSE+Qxz62m/BJR7YPqjg15e3GpvT/sXTUnq9/
Gb2/aX7pdjeMie0122CPu7QITxMdxNeyrTbO3cH2IDtYuJTXIkyW+tMKshqOLzNx
ZGIznF1/8qUvKKabIc3PEwKBgGbsjqFoJhb/EKx+oA4bBacB/Q/JWBHaj0L+xbj+
xzSy4iuSeJV4UUGkMWJyR4ZFZbU5kgHuSTmksHGtJLOye2JEUnLQPEuAYtvuKDuB
0ugUi+SWQTUdGgoIAX2t4UexZ5VhyXs0eUXr9zOgmyk4oqzp+dl0pP7DtmLR9GdF
TVzhAoGAKynyVNapOJ1ZCPUwjS0jZLAoMyTFMASuZt72VJjf6Spd3+PXUk9k/GN0
vcwrdUThe8kD3vN5TBr+kaaKIEhUfL98kJTt4o7IBPogMLjBG0ro8je9TR4s9yDa
28du/UR2iLL4xJgck4fJDZpSPwOr/lYtaojifX2IxuJ4jNzjuBU=
-----END RSA PRIVATE KEY-----
