Certificate:
    Data:
        Version: 3 (0x2)
        Serial Number: 3 (0x3)
    Signature Algorithm: sha256WithRSAEncryption
        Issuer: C=US, ST=Michigan, L=Mason, O=Dart Container Corp., OU=Koji Certificate Authority, CN=mdct-koji-f21.dartcontainer.com
        Validity
            Not Before: Mar 27 18:00:11 2015 GMT
            Not After : Mar 24 18:00:11 2025 GMT
        Subject: C=US, ST=Michigan, O=Dart Container Corp., OU=kojiweb, CN=mdct-koji-f21.dartcontainer.com
        Subject Public Key Info:
            Public Key Algorithm: rsaEncryption
                Public-Key: (2048 bit)
                Modulus:
                    00:b5:d0:e5:9b:ca:3f:7d:f2:f7:ed:50:3b:bc:f1:
                    b3:14:7e:4b:ef:67:73:bc:04:8f:f7:4a:55:57:05:
                    b9:36:56:f4:e0:50:59:b8:b6:cb:5c:61:bf:98:98:
                    d6:33:a8:3d:8f:21:31:30:55:dd:ad:95:ad:4e:21:
                    cb:97:d0:bd:23:eb:cd:b9:53:f9:6b:aa:74:f1:98:
                    b6:fb:33:e7:3b:f8:5d:d9:f4:36:15:23:9a:cc:45:
                    03:70:88:59:27:e3:e1:d4:92:9f:0b:d9:80:65:30:
                    23:3f:88:17:9b:40:6d:c0:98:17:66:b0:ca:b0:81:
                    30:a3:f9:9b:a2:8c:a9:af:7e:e3:4d:a1:39:8c:7b:
                    7f:cb:02:f7:a2:a6:ca:71:16:cd:dd:69:74:42:6a:
                    1a:53:ad:7d:e7:04:96:9c:df:11:59:31:f0:f5:b2:
                    00:b6:2c:d9:77:66:c0:8e:43:12:91:2b:6b:e5:53:
                    de:f4:dd:4f:02:9c:91:d1:0c:97:4e:0f:3f:48:be:
                    ac:a2:f3:97:2b:19:20:91:1a:0c:01:92:17:34:fb:
                    cb:ad:3d:d9:fc:eb:e6:a0:89:de:f4:89:9a:46:fb:
                    9d:e1:a8:fe:d4:8f:5b:f0:87:f3:bf:5c:95:bb:a6:
                    67:8f:5c:19:ad:4e:89:4f:cd:75:68:dd:9a:ef:bd:
                    c3:23
                Exponent: 65537 (0x10001)
        X509v3 extensions:
            X509v3 Basic Constraints: 
                CA:FALSE
            Netscape Comment: 
                OpenSSL Generated Certificate
            X509v3 Subject Key Identifier: 
                34:F8:76:79:C7:F6:EA:77:6E:4A:78:4A:74:08:C7:E0:3F:ED:B4:40
            X509v3 Authority Key Identifier: 
                keyid:4D:E6:08:C1:37:BE:47:CE:CD:CE:13:DB:95:0F:6C:98:27:D3:4F:62
                DirName:/C=US/ST=Michigan/L=Mason/O=Dart Container Corp./OU=Koji Certificate Authority/CN=mdct-koji-f21.dartcontainer.com
                serial:ED:94:1F:27:EE:08:9C:31

    Signature Algorithm: sha256WithRSAEncryption
         c8:92:be:fc:65:69:d3:49:55:dc:13:10:c3:ad:1b:44:f5:a1:
         eb:69:07:60:8a:29:ef:06:d3:6a:1e:16:36:b2:c3:a9:89:63:
         24:6d:e4:db:ee:ab:08:e8:16:09:a6:47:26:4c:76:10:ad:81:
         af:10:3d:25:e6:fd:3e:18:a9:4f:02:36:3a:d8:da:d2:fc:a3:
         d0:b0:1a:89:a9:4f:12:73:04:8f:e2:9c:f8:22:bd:32:33:33:
         49:7d:a0:ed:22:7f:a9:05:a5:29:5f:59:95:14:02:0b:af:64:
         79:94:a3:54:32:c9:a8:c0:73:02:b5:62:78:77:f0:b8:42:11:
         a0:65:51:23:79:22:b0:e5:b2:70:32:bd:ae:07:5d:27:5d:31:
         ea:c5:5a:61:bf:be:98:89:de:da:8e:32:74:dd:d1:b1:92:5a:
         e2:fc:fa:df:9d:96:e0:31:2a:b4:7c:2e:ee:db:52:ef:3b:e4:
         23:2b:fd:fd:59:ea:64:ff:8f:48:e3:5a:b0:20:bb:d3:27:c2:
         a5:0e:bf:84:3d:17:3e:e7:6b:3a:b7:c5:06:a9:bd:d8:c7:67:
         c9:1e:38:48:dd:d9:8f:f2:5f:19:b5:db:fe:ae:dd:df:e1:7d:
         2a:0f:51:0a:1a:6a:60:8a:d6:99:fb:aa:cc:0d:ed:b7:c4:4e:
         8b:05:1c:3a
-----BEGIN CERTIFICATE-----
MIIEyTCCA7GgAwIBAgIBAzANBgkqhkiG9w0BAQsFADCBnjELMAkGA1UEBhMCVVMx
ETAPBgNVBAgTCE1pY2hpZ2FuMQ4wDAYDVQQHEwVNYXNvbjEdMBsGA1UEChMURGFy
dCBDb250YWluZXIgQ29ycC4xIzAhBgNVBAsTGktvamkgQ2VydGlmaWNhdGUgQXV0
aG9yaXR5MSgwJgYDVQQDEx9tZGN0LWtvamktZjIxLmRhcnRjb250YWluZXIuY29t
MB4XDTE1MDMyNzE4MDAxMVoXDTI1MDMyNDE4MDAxMVowezELMAkGA1UEBhMCVVMx
ETAPBgNVBAgTCE1pY2hpZ2FuMR0wGwYDVQQKExREYXJ0IENvbnRhaW5lciBDb3Jw
LjEQMA4GA1UECxMHa29qaXdlYjEoMCYGA1UEAxMfbWRjdC1rb2ppLWYyMS5kYXJ0
Y29udGFpbmVyLmNvbTCCASIwDQYJKoZIhvcNAQEBBQADggEPADCCAQoCggEBALXQ
5ZvKP33y9+1QO7zxsxR+S+9nc7wEj/dKVVcFuTZW9OBQWbi2y1xhv5iY1jOoPY8h
MTBV3a2VrU4hy5fQvSPrzblT+WuqdPGYtvsz5zv4Xdn0NhUjmsxFA3CIWSfj4dSS
nwvZgGUwIz+IF5tAbcCYF2awyrCBMKP5m6KMqa9+402hOYx7f8sC96KmynEWzd1p
dEJqGlOtfecElpzfEVkx8PWyALYs2XdmwI5DEpEra+VT3vTdTwKckdEMl04PP0i+
rKLzlysZIJEaDAGSFzT7y6092fzr5qCJ3vSJmkb7neGo/tSPW/CH879clbumZ49c
Ga1OiU/NdWjdmu+9wyMCAwEAAaOCATIwggEuMAkGA1UdEwQCMAAwLAYJYIZIAYb4
QgENBB8WHU9wZW5TU0wgR2VuZXJhdGVkIENlcnRpZmljYXRlMB0GA1UdDgQWBBQ0
+HZ5x/bqd25KeEp0CMfgP+20QDCB0wYDVR0jBIHLMIHIgBRN5gjBN75Hzs3OE9uV
D2yYJ9NPYqGBpKSBoTCBnjELMAkGA1UEBhMCVVMxETAPBgNVBAgTCE1pY2hpZ2Fu
MQ4wDAYDVQQHEwVNYXNvbjEdMBsGA1UEChMURGFydCBDb250YWluZXIgQ29ycC4x
IzAhBgNVBAsTGktvamkgQ2VydGlmaWNhdGUgQXV0aG9yaXR5MSgwJgYDVQQDEx9t
ZGN0LWtvamktZjIxLmRhcnRjb250YWluZXIuY29tggkA7ZQfJ+4InDEwDQYJKoZI
hvcNAQELBQADggEBAMiSvvxladNJVdwTEMOtG0T1oetpB2CKKe8G02oeFjayw6mJ
YyRt5NvuqwjoFgmmRyZMdhCtga8QPSXm/T4YqU8CNjrY2tL8o9CwGompTxJzBI/i
nPgivTIzM0l9oO0if6kFpSlfWZUUAguvZHmUo1QyyajAcwK1Ynh38LhCEaBlUSN5
IrDlsnAyva4HXSddMerFWmG/vpiJ3tqOMnTd0bGSWuL8+t+dluAxKrR8Lu7bUu87
5CMr/f1Z6mT/j0jjWrAgu9MnwqUOv4Q9Fz7nazq3xQapvdjHZ8keOEjd2Y/yXxm1
2/6u3d/hfSoPUQoaamCK1pn7qswN7bfETosFHDo=
-----END CERTIFICATE-----
-----BEGIN RSA PRIVATE KEY-----
MIIEogIBAAKCAQEAtdDlm8o/ffL37VA7vPGzFH5L72dzvASP90pVVwW5Nlb04FBZ
uLbLXGG/mJjWM6g9jyExMFXdrZWtTiHLl9C9I+vNuVP5a6p08Zi2+zPnO/hd2fQ2
FSOazEUDcIhZJ+Ph1JKfC9mAZTAjP4gXm0BtwJgXZrDKsIEwo/mbooypr37jTaE5
jHt/ywL3oqbKcRbN3Wl0QmoaU6195wSWnN8RWTHw9bIAtizZd2bAjkMSkStr5VPe
9N1PApyR0QyXTg8/SL6sovOXKxkgkRoMAZIXNPvLrT3Z/OvmoIne9ImaRvud4aj+
1I9b8Ifzv1yVu6Znj1wZrU6JT811aN2a773DIwIDAQABAoIBAHRX/WWokOJ2pMHe
EqwAeljFzK+gooWQ4dMbZOqvxeoI0N/tasxxZEZ0Ylcyjfc2VFYPpltIxva6DdEu
fQpjz3R6AwXxv2xvAjBLSeQLPY+5iczbofP6+aZ3DxFmnq6Q+0S8ojvB7ZBSsmuI
GZsGKnUQngDfZoR11vtG0Zm9qyOZ2Xg8N8sYaYN8C5j4DQywIc7tSx9N9Sx/8hsg
PAyDL7Z20eXLF1gQfXj1il16KKIhhxiBfk+/0g84RLsm0FrpEyHxxpJ+MP9iPPMJ
RXDcHAXnoV6VHoqMfyAY6QBCdfq2Uh6YEmeuvi+vfoU0r0HNOirjGR15pvq1ZYIc
nm9YBukCgYEA3rGEFhtIKrsRpGit1CdR2roJpRv5fvJEnfLVaWWAX9U5e6c2u17f
uDKNSgystD7dC7RX5QKV4+50XsqQyUEV6h20w6yL0NwQXvxejDeoL7Rw0ZR6yCfr
+Tw4iPbASrH2FrDFdckOYKjRqL6Z3EvgLybnTbQAsVFJl38fwph7Z48CgYEA0QJE
RHcNqhjdJ9rJ8JaXj4B75SvRPiIR2lydvpTvxnMZ0QiXpjwxU8eydC+5aDDHo164
je8K97YnSLGAQgxOUuvtCgdEY/zizAlAczHOn93xNi/lCKQN8FrfvqZxHoUhSSos
PRoGeSf+33tj/MiPTJ51z2H4sNUR8G/RVtSLAS0CgYAYGTWl/sXMefnqxLkq4CZn
eQJaL7DMIAN05DZb9XPy6uwRiYLOu/GRyUao4L4/sx3Qim+IhMMbq05Eg78vSC/K
6fQJyL5Il8fdv4mrusokf25F/79ZsZhDnFSx3aHpc2CiC/cSS/OWWi52CEo2IK/d
6mPVcMkyZw2Dq2oQcNfJ2QKBgBfw7Yb2KC+Kx5JwIl+XsGa0rfxzR3WZi3f60erp
vol518Q0+sIE9RWGs29RpChGJigViohfkF8Nk3RlOK7YIASpl65lZLUbW5NJoANR
+jwfvSia1d5mhF462pRJFn4Le+OYnBanq4QnS6+nv61N//Qj1pTZwRXoYjSrakxK
7l1FAoGAfynjO8hB/XTEBSfACcjGy8+m4LKNgmTwg7i8NzQP11L0mvVnFyGTuuwz
ZLvBggpXCO6EofszJGNNqQEwFsOBtyPLDQ1FKSHJuIyvncUSJSt16FB5j1XRm+Bn
nfJkT4oyYv0BFyBEo1V0zu47vMY0Rn7/A8YQTTV18+60XAs84fM=
-----END RSA PRIVATE KEY-----
