Certificate:
    Data:
        Version: 3 (0x2)
        Serial Number: 11 (0xb)
    Signature Algorithm: sha256WithRSAEncryption
        Issuer: C=US, ST=Michigan, L=Mason, O=Dart Container Corp., OU=Koji Certificate Authority, CN=mdct-koji-f21.dartcontainer.com
        Validity
            Not Before: May  8 17:37:47 2015 GMT
            Not After : May  5 17:37:47 2025 GMT
        Subject: C=US, ST=Michigan, O=Dart Container Corp., OU=kojid, CN=mdct-koji-b4-f21.dartcontainer.com
        Subject Public Key Info:
            Public Key Algorithm: rsaEncryption
                Public-Key: (2048 bit)
                Modulus:
                    00:e8:2e:23:01:a7:21:0f:ce:6a:33:01:88:0c:33:
                    e1:90:09:fd:a5:31:3c:88:42:59:1b:c6:53:d0:ae:
                    c1:57:2e:fd:b2:5c:1b:72:6b:6a:50:f4:67:01:57:
                    5d:32:05:f6:8e:de:e9:bc:9a:04:7a:f4:d1:11:a1:
                    0e:59:eb:57:1c:83:51:f5:83:89:a0:f5:de:36:ea:
                    f8:76:07:f9:be:b9:5d:fc:64:93:a0:ae:07:97:78:
                    b2:e8:fa:23:4d:f7:ce:8e:94:b7:55:e9:f7:0f:17:
                    08:f4:3b:fa:02:fa:ae:78:35:85:90:a2:19:83:f8:
                    76:fb:8b:17:36:ff:2a:a5:e0:f4:ee:77:31:f9:1f:
                    bb:f2:e2:23:dc:55:bc:67:8e:95:25:3c:cd:cc:a0:
                    dd:b7:5b:8b:9f:29:dc:d3:80:07:46:14:4b:33:66:
                    ba:11:30:f5:01:2d:28:4c:81:99:4f:15:25:e2:53:
                    5d:72:cc:e4:aa:ad:1f:a9:d1:b6:53:5d:f5:70:20:
                    52:20:09:7f:ae:4c:28:20:97:8d:4b:94:06:b5:fc:
                    07:c8:0a:2d:36:d9:9d:04:9a:ff:96:77:c6:41:a1:
                    e1:8a:eb:00:ca:88:9d:94:32:b6:1a:6c:44:4d:11:
                    52:a7:36:bf:ee:e2:85:9e:ca:fd:de:b5:af:36:06:
                    86:1f
                Exponent: 65537 (0x10001)
        X509v3 extensions:
            X509v3 Basic Constraints: 
                CA:FALSE
            Netscape Comment: 
                OpenSSL Generated Certificate
            X509v3 Subject Key Identifier: 
                8D:E0:C5:44:FF:6C:15:4A:45:D6:78:AF:60:FA:C4:C7:8F:A2:2F:1F
            X509v3 Authority Key Identifier: 
                keyid:4D:E6:08:C1:37:BE:47:CE:CD:CE:13:DB:95:0F:6C:98:27:D3:4F:62
                DirName:/C=US/ST=Michigan/L=Mason/O=Dart Container Corp./OU=Koji Certificate Authority/CN=mdct-koji-f21.dartcontainer.com
                serial:ED:94:1F:27:EE:08:9C:31

    Signature Algorithm: sha256WithRSAEncryption
         a4:1c:ba:74:ec:9c:ac:38:c6:94:19:d8:7a:84:d7:9a:c8:bb:
         d7:c1:b8:61:f7:59:cc:4d:69:26:11:88:36:cf:5c:9e:be:42:
         77:41:b4:b2:94:d1:31:80:4c:75:31:1c:e6:a3:8a:a5:91:1d:
         48:3d:6c:4c:44:c2:29:42:08:02:34:e0:52:30:a1:6e:13:a2:
         4e:18:a3:a5:cb:aa:52:8e:07:01:ea:5e:4c:67:c1:22:85:6d:
         46:e1:2e:0e:bf:dd:27:0c:e0:d7:7a:fd:8b:5f:0a:b2:2b:bc:
         90:2e:6a:48:78:0a:60:c7:ac:5b:d6:ff:7a:8b:ca:0c:ef:55:
         cc:e5:f7:f1:4d:8d:39:2a:70:b1:cd:f9:8d:d2:e6:6c:e7:b6:
         7c:97:3a:37:b8:c1:62:a7:5b:75:3e:a8:5d:8b:ab:76:14:a9:
         53:83:5f:b9:d8:31:3e:5f:af:72:70:37:6c:b7:fe:82:ed:c2:
         ed:72:24:9a:fe:82:d7:35:a0:33:39:09:4f:35:35:6d:c7:38:
         2f:6b:4e:85:aa:61:cd:17:ec:0b:e4:29:65:ba:43:3b:c4:92:
         c1:38:16:50:b3:e8:6b:d3:94:f2:6a:c5:12:45:73:b8:d7:96:
         e4:10:23:5f:6a:2c:c6:f2:7f:81:11:a1:54:90:37:3d:57:32:
         c2:22:5b:7d
-----BEGIN CERTIFICATE-----
MIIEyjCCA7KgAwIBAgIBCzANBgkqhkiG9w0BAQsFADCBnjELMAkGA1UEBhMCVVMx
ETAPBgNVBAgTCE1pY2hpZ2FuMQ4wDAYDVQQHEwVNYXNvbjEdMBsGA1UEChMURGFy
dCBDb250YWluZXIgQ29ycC4xIzAhBgNVBAsTGktvamkgQ2VydGlmaWNhdGUgQXV0
aG9yaXR5MSgwJgYDVQQDEx9tZGN0LWtvamktZjIxLmRhcnRjb250YWluZXIuY29t
MB4XDTE1MDUwODE3Mzc0N1oXDTI1MDUwNTE3Mzc0N1owfDELMAkGA1UEBhMCVVMx
ETAPBgNVBAgTCE1pY2hpZ2FuMR0wGwYDVQQKExREYXJ0IENvbnRhaW5lciBDb3Jw
LjEOMAwGA1UECxMFa29qaWQxKzApBgNVBAMTIm1kY3Qta29qaS1iNC1mMjEuZGFy
dGNvbnRhaW5lci5jb20wggEiMA0GCSqGSIb3DQEBAQUAA4IBDwAwggEKAoIBAQDo
LiMBpyEPzmozAYgMM+GQCf2lMTyIQlkbxlPQrsFXLv2yXBtya2pQ9GcBV10yBfaO
3um8mgR69NERoQ5Z61ccg1H1g4mg9d426vh2B/m+uV38ZJOgrgeXeLLo+iNN986O
lLdV6fcPFwj0O/oC+q54NYWQohmD+Hb7ixc2/yql4PTudzH5H7vy4iPcVbxnjpUl
PM3MoN23W4ufKdzTgAdGFEszZroRMPUBLShMgZlPFSXiU11yzOSqrR+p0bZTXfVw
IFIgCX+uTCggl41LlAa1/AfICi022Z0Emv+Wd8ZBoeGK6wDKiJ2UMrYabERNEVKn
Nr/u4oWeyv3eta82BoYfAgMBAAGjggEyMIIBLjAJBgNVHRMEAjAAMCwGCWCGSAGG
+EIBDQQfFh1PcGVuU1NMIEdlbmVyYXRlZCBDZXJ0aWZpY2F0ZTAdBgNVHQ4EFgQU
jeDFRP9sFUpF1nivYPrEx4+iLx8wgdMGA1UdIwSByzCByIAUTeYIwTe+R87NzhPb
lQ9smCfTT2KhgaSkgaEwgZ4xCzAJBgNVBAYTAlVTMREwDwYDVQQIEwhNaWNoaWdh
bjEOMAwGA1UEBxMFTWFzb24xHTAbBgNVBAoTFERhcnQgQ29udGFpbmVyIENvcnAu
MSMwIQYDVQQLExpLb2ppIENlcnRpZmljYXRlIEF1dGhvcml0eTEoMCYGA1UEAxMf
bWRjdC1rb2ppLWYyMS5kYXJ0Y29udGFpbmVyLmNvbYIJAO2UHyfuCJwxMA0GCSqG
SIb3DQEBCwUAA4IBAQCkHLp07JysOMaUGdh6hNeayLvXwbhh91nMTWkmEYg2z1ye
vkJ3QbSylNExgEx1MRzmo4qlkR1IPWxMRMIpQggCNOBSMKFuE6JOGKOly6pSjgcB
6l5MZ8EihW1G4S4Ov90nDODXev2LXwqyK7yQLmpIeApgx6xb1v96i8oM71XM5ffx
TY05KnCxzfmN0uZs57Z8lzo3uMFip1t1Pqhdi6t2FKlTg1+52DE+X69ycDdst/6C
7cLtciSa/oLXNaAzOQlPNTVtxzgva06FqmHNF+wL5CllukM7xJLBOBZQs+hr05Ty
asUSRXO415bkECNfaizG8n+BEaFUkDc9VzLCIlt9
-----END CERTIFICATE-----
-----BEGIN RSA PRIVATE KEY-----
MIIEogIBAAKCAQEA6C4jAachD85qMwGIDDPhkAn9pTE8iEJZG8ZT0K7BVy79slwb
cmtqUPRnAVddMgX2jt7pvJoEevTREaEOWetXHINR9YOJoPXeNur4dgf5vrld/GST
oK4Hl3iy6PojTffOjpS3Ven3DxcI9Dv6AvqueDWFkKIZg/h2+4sXNv8qpeD07ncx
+R+78uIj3FW8Z46VJTzNzKDdt1uLnync04AHRhRLM2a6ETD1AS0oTIGZTxUl4lNd
cszkqq0fqdG2U131cCBSIAl/rkwoIJeNS5QGtfwHyAotNtmdBJr/lnfGQaHhiusA
yoidlDK2GmxETRFSpza/7uKFnsr93rWvNgaGHwIDAQABAoIBACNRSU/qDVRrMKpb
lEdO6QPRET08lRmhBg78hylaO9y4MC0eZ6pq/nwcAUMp9+oxEAVBkUp4HzBY5yiI
WDeDXfffXes7vAa4/7lY2ryRkALcDZjj77TkZBE9cfGQgyhMBqaXpp+x/DvWZC1K
pkgnu7xbX9rVXY4+kFLJIJnkDKe4mzXk4s4cjdQsYNKRamwcMubqxFgSRaeCH9CR
bMbPMQivUBI6714ATXbN6TS4KE68b0GXQ2tPhBI3tlSXMj1w4g+2RX4ujjFfb6/w
jSgJSlo4gpxsaRzdf3QChZm6cqUpaT4DPPnFpA403g96+3M4j68BQBz8FoiErQxM
EEb73VkCgYEA+tcPLJbkA1MgfqgUnUhPFTd4C9WOCW5SO8KvtDgXfuA2N4Xo7KAk
gZz1CLqjwDArkQDjzXypP2juDOM/D12RQCHy7qAOmwERV3zFLYmAx7J5j/FdVRfY
X5yu7flX4LXil2tsvg5Wim9dNu6QMk2dj5uNQ+y27AcJnarJlO06+0sCgYEA7PTQ
PJG7ONLagNfaYLG79+02TmKnwJg862+qogOkhj53UDdddN/QMcb/wZ4bP1QM1wFD
4Y546u60P4cHKjfLBrHHqp7sOHiYmGro3e6/CGFLizPkPz5K6A9ASEDoa0uZHoiq
HysqwrGPaQbNiZUjabEQ6ziHZCnkhEH3VelDZ/0CgYAiO5dmjnEvwvh8UJP/ow6n
5poLg2mO/+9ZGIjCH6WVOyQrD6tqH7Dbv3/xYQdYAzru3yA3uvueG8PhHmJMxog8
KGXvCwjzPoIPXofKXymkF0dfzaDfLBHreoalE5JaqHf0EkUU6wAEhI5EIOqs8sq9
/oyY6IVOUOePDO/V00ppYQKBgBMZABeBn1dLFzU/MGiOqpmm0rOqm96X5oELNPNt
27q+Ghuq+qtKxprccQyH06Zc/dPuVCw/sVst9fUQyvEKIiDd/zuvJ1a90X6nTzFj
5p2kSdRkUEcQnDTr1cB9Cr5rD2I4nY15iy655NcQJ0ypantAPB7ZJYBbKAHI10hj
Tn15AoGAcrZ1jWpaXlg7tbpZmu1ZUcs4LPibyVhKOIxLEqLzcTg2+F5JN97E3szT
wATcCNsHu2qhUojySh2zOcxbayPPHuzRUJiAeR1Y9m2JQE497CHGy3yntqM6snm5
L0v6fANXGxmiHPGNrct9XVA47DG9OtGzSIQUGslO+RpYdXjXlGQ=
-----END RSA PRIVATE KEY-----
