Certificate:
    Data:
        Version: 3 (0x2)
        Serial Number: 12 (0xc)
    Signature Algorithm: sha256WithRSAEncryption
        Issuer: C=US, ST=Michigan, L=Mason, O=Dart Container Corp., OU=Koji Certificate Authority, CN=mdct-koji-f21.dartcontainer.com
        Validity
            Not Before: May  8 17:38:43 2015 GMT
            Not After : May  5 17:38:43 2025 GMT
        Subject: C=US, ST=Michigan, O=Dart Container Corp., OU=kojid, CN=mdct-koji-b5-f21.dartcontainer.com
        Subject Public Key Info:
            Public Key Algorithm: rsaEncryption
                Public-Key: (2048 bit)
                Modulus:
                    00:b1:9e:d8:f5:8c:c6:95:37:c8:75:9b:30:cf:96:
                    89:18:7c:32:39:d3:d1:35:03:62:b4:39:22:48:86:
                    b9:34:b2:1c:5a:5a:ca:8b:91:42:9f:d5:a8:f8:97:
                    c3:30:6b:9a:9b:16:01:33:06:d0:7f:21:6d:de:c9:
                    94:da:e2:2f:62:23:7f:fc:63:a7:eb:65:e3:a4:68:
                    2d:9b:ea:21:5d:37:00:89:83:3d:d1:8f:8f:6a:c9:
                    e8:09:1f:41:bc:c5:08:b5:2a:6a:2a:79:53:3d:7c:
                    03:05:87:37:b6:6b:65:b4:b1:b0:73:eb:e7:46:65:
                    84:21:dd:99:41:75:e9:3e:d4:89:d2:ec:f2:d5:41:
                    78:61:87:7d:71:89:60:c9:ef:ba:16:70:8a:f6:5d:
                    33:0c:d9:8b:ad:b8:7e:cc:e5:3f:e0:5b:56:a3:cd:
                    30:02:06:7a:fc:39:ae:74:c8:0b:eb:19:a3:bf:dd:
                    dc:de:d9:dd:39:3d:52:69:a9:9f:83:6c:4e:8d:f1:
                    15:da:bd:fb:7c:1d:a2:9e:d0:02:d8:e8:8a:e1:95:
                    19:ef:35:67:d7:20:65:cf:b3:8b:1d:61:4c:8b:84:
                    8c:46:98:90:b1:2c:c1:9b:e9:a5:86:f6:5c:69:18:
                    40:68:04:7c:3a:da:0a:62:0f:4e:b7:99:c0:84:5d:
                    0c:d5
                Exponent: 65537 (0x10001)
        X509v3 extensions:
            X509v3 Basic Constraints: 
                CA:FALSE
            Netscape Comment: 
                OpenSSL Generated Certificate
            X509v3 Subject Key Identifier: 
                78:1F:58:B0:E2:8F:EA:47:80:15:81:B0:3F:92:28:0D:E8:06:C9:71
            X509v3 Authority Key Identifier: 
                keyid:4D:E6:08:C1:37:BE:47:CE:CD:CE:13:DB:95:0F:6C:98:27:D3:4F:62
                DirName:/C=US/ST=Michigan/L=Mason/O=Dart Container Corp./OU=Koji Certificate Authority/CN=mdct-koji-f21.dartcontainer.com
                serial:ED:94:1F:27:EE:08:9C:31

    Signature Algorithm: sha256WithRSAEncryption
         ce:4e:13:0b:83:80:da:5a:da:68:65:5e:c0:95:59:b7:7d:f9:
         1c:e7:fb:4f:3c:d5:d2:0c:83:f7:cf:11:ae:e4:73:94:40:c3:
         48:75:b9:14:21:e1:85:38:4f:96:2d:27:ba:3c:a6:c4:aa:6a:
         34:4f:95:b0:47:62:c2:67:07:d9:22:64:47:1b:53:17:66:a0:
         84:90:63:d1:56:25:d3:67:0a:46:26:38:02:58:6a:3a:c4:7a:
         42:61:af:88:6c:64:1b:d3:11:ee:44:dc:bf:7d:8d:3c:85:f0:
         44:02:0f:b2:3c:34:dc:28:c6:c9:b4:94:70:99:c9:4d:bb:89:
         4b:d3:69:29:48:9a:71:3f:db:be:f1:4f:aa:99:75:0b:36:da:
         d1:16:32:66:fc:67:80:eb:db:8a:c6:41:b3:13:53:1e:28:09:
         24:1f:2a:2c:d8:df:a9:2c:8e:bb:3a:64:60:d9:5e:8a:fd:2c:
         1e:74:17:bb:10:03:f9:85:e7:f5:63:3a:83:18:20:fa:87:0c:
         c3:8f:e8:b8:ca:c8:af:c1:c7:4b:d0:a4:9a:07:2c:90:43:63:
         66:c4:f2:19:fe:68:e0:40:63:4b:7b:44:28:ef:8a:01:e3:be:
         86:fa:fa:0e:66:3a:10:05:3f:f1:9a:80:6d:6f:c0:c2:e2:29:
         00:6a:75:52
-----BEGIN CERTIFICATE-----
MIIEyjCCA7KgAwIBAgIBDDANBgkqhkiG9w0BAQsFADCBnjELMAkGA1UEBhMCVVMx
ETAPBgNVBAgTCE1pY2hpZ2FuMQ4wDAYDVQQHEwVNYXNvbjEdMBsGA1UEChMURGFy
dCBDb250YWluZXIgQ29ycC4xIzAhBgNVBAsTGktvamkgQ2VydGlmaWNhdGUgQXV0
aG9yaXR5MSgwJgYDVQQDEx9tZGN0LWtvamktZjIxLmRhcnRjb250YWluZXIuY29t
MB4XDTE1MDUwODE3Mzg0M1oXDTI1MDUwNTE3Mzg0M1owfDELMAkGA1UEBhMCVVMx
ETAPBgNVBAgTCE1pY2hpZ2FuMR0wGwYDVQQKExREYXJ0IENvbnRhaW5lciBDb3Jw
LjEOMAwGA1UECxMFa29qaWQxKzApBgNVBAMTIm1kY3Qta29qaS1iNS1mMjEuZGFy
dGNvbnRhaW5lci5jb20wggEiMA0GCSqGSIb3DQEBAQUAA4IBDwAwggEKAoIBAQCx
ntj1jMaVN8h1mzDPlokYfDI509E1A2K0OSJIhrk0shxaWsqLkUKf1aj4l8Mwa5qb
FgEzBtB/IW3eyZTa4i9iI3/8Y6frZeOkaC2b6iFdNwCJgz3Rj49qyegJH0G8xQi1
KmoqeVM9fAMFhze2a2W0sbBz6+dGZYQh3ZlBdek+1InS7PLVQXhhh31xiWDJ77oW
cIr2XTMM2YutuH7M5T/gW1ajzTACBnr8Oa50yAvrGaO/3dze2d05PVJpqZ+DbE6N
8RXavft8HaKe0ALY6IrhlRnvNWfXIGXPs4sdYUyLhIxGmJCxLMGb6aWG9lxpGEBo
BHw62gpiD063mcCEXQzVAgMBAAGjggEyMIIBLjAJBgNVHRMEAjAAMCwGCWCGSAGG
+EIBDQQfFh1PcGVuU1NMIEdlbmVyYXRlZCBDZXJ0aWZpY2F0ZTAdBgNVHQ4EFgQU
eB9YsOKP6keAFYGwP5IoDegGyXEwgdMGA1UdIwSByzCByIAUTeYIwTe+R87NzhPb
lQ9smCfTT2KhgaSkgaEwgZ4xCzAJBgNVBAYTAlVTMREwDwYDVQQIEwhNaWNoaWdh
bjEOMAwGA1UEBxMFTWFzb24xHTAbBgNVBAoTFERhcnQgQ29udGFpbmVyIENvcnAu
MSMwIQYDVQQLExpLb2ppIENlcnRpZmljYXRlIEF1dGhvcml0eTEoMCYGA1UEAxMf
bWRjdC1rb2ppLWYyMS5kYXJ0Y29udGFpbmVyLmNvbYIJAO2UHyfuCJwxMA0GCSqG
SIb3DQEBCwUAA4IBAQDOThMLg4DaWtpoZV7AlVm3ffkc5/tPPNXSDIP3zxGu5HOU
QMNIdbkUIeGFOE+WLSe6PKbEqmo0T5WwR2LCZwfZImRHG1MXZqCEkGPRViXTZwpG
JjgCWGo6xHpCYa+IbGQb0xHuRNy/fY08hfBEAg+yPDTcKMbJtJRwmclNu4lL02kp
SJpxP9u+8U+qmXULNtrRFjJm/GeA69uKxkGzE1MeKAkkHyos2N+pLI67OmRg2V6K
/SwedBe7EAP5hef1YzqDGCD6hwzDj+i4ysivwcdL0KSaByyQQ2NmxPIZ/mjgQGNL
e0Qo74oB476G+voOZjoQBT/xmoBtb8DC4ikAanVS
-----END CERTIFICATE-----
-----BEGIN RSA PRIVATE KEY-----
MIIEowIBAAKCAQEAsZ7Y9YzGlTfIdZswz5aJGHwyOdPRNQNitDkiSIa5NLIcWlrK
i5FCn9Wo+JfDMGuamxYBMwbQfyFt3smU2uIvYiN//GOn62XjpGgtm+ohXTcAiYM9
0Y+PasnoCR9BvMUItSpqKnlTPXwDBYc3tmtltLGwc+vnRmWEId2ZQXXpPtSJ0uzy
1UF4YYd9cYlgye+6FnCK9l0zDNmLrbh+zOU/4FtWo80wAgZ6/DmudMgL6xmjv93c
3tndOT1Saamfg2xOjfEV2r37fB2intAC2OiK4ZUZ7zVn1yBlz7OLHWFMi4SMRpiQ
sSzBm+mlhvZcaRhAaAR8OtoKYg9Ot5nAhF0M1QIDAQABAoIBAAqzMwa30E606ZKM
IsienOuor63kILo81fldZ79OvmF6SVL4HTODMKxIRsGTAuMr2Eh3buMQCgdekCvX
oOv+rDQRR2iA6GC55pjE3dqCpDflVFb0XQj+yPj56MyD4YXpqLihMXwVivotOlFe
7/BBUAMuoR6am3gWLXuMyeqzm7V5JoxRVqA2qE7uNBTExN+r1PsMu9kqwoK7fbAy
FWGm/XP2oK6IZ7z0Le3s+y9pTO2sQtJQhTb5f2WQ7S/b2dWUsz4exTB399iTpQ6V
aK+7/SyKB1Tnxfr6WuRtVPOrg60s+u0MtF2tUWT1v3mnWvg1Dnf0UnkMU06GNKFT
Tgbyq4ECgYEA30RkCdQS7pEg6UIF4lntULMp1G5crfgTb4UkW+l/CNfBqDWply+T
e0/Kip8Lhqg8/9BThizzytD2mNDm1yMoFGZ/XASw1ks8yASbV65jWz4NiqhZTU96
7GG8qoDMgB6r4eWYUp+zZvxIEYdZup2OOMKH6NxGE9YdQ8jWMhRPZRkCgYEAy6lB
6SnR6KQlBZkF2fedeUgwvORtvH1uJ9m+ki0JavnPlsCMfsv4Y2UtcmYsznh5hzzg
OKP548f2qPItRlaBYrFMrja41DtJRltHIZ/4zpl3OkWe9tFJRqvwkCQz1fopUtbH
m4wMN/q57kx2NF5XickZVpZrvMgFjOiLDil1gR0CgYBhFcoyg+efmbgn9i+818Hc
P6xG1Z6zf5Zj/g9rcENvQvLRBFS0i1mkW3QFh1dpvKqZyqsnQ1DXtrokhWJ71qvN
Ay0KhHepF5pcl7Q9EnXd7UPSMZZzicY4F+AEfHFwnOW9Gyt7cjp+4+EqziJ0haKc
h+q1lWNbqNWc7i5GJJLJsQKBgQDITUeN0puoewgOYVnn7ijqx51nqiJjZ9mXSAiu
K60/kUIhum5zppg86Z2xDdyzlLmx0KWWD3AOHvTxZH4y15GZR1drYFaYJVcD43Iq
F/PU/grNPPwDNAMlhqWqnnB82vUZjDP1P+Akjmufe4QmLUNbOHW7O2Xq3a7Xzz40
R4JR4QKBgB1Ys3D4aJdxLy907PtS6apG/CJniq+Ywona4v0O0T+cVbLyiTS+rFxF
osST9Qvxx1ek+4HfeyLWAhSreGEsHxIGZRR5TdJ9ieYroAu2gpsla5teFW5wIiqX
xRNDStdbsMS0azU+zRJebJybPHWfTzl5D0cgUNIv2eZMztUoguox
-----END RSA PRIVATE KEY-----
