Certificate:
    Data:
        Version: 3 (0x2)
        Serial Number: 9 (0x9)
    Signature Algorithm: sha256WithRSAEncryption
        Issuer: C=US, ST=Michigan, L=Mason, O=Dart Container Corp., OU=Koji Certificate Authority, CN=mdct-koji-f21.dartcontainer.com
        Validity
            Not Before: Apr  7 15:13:44 2015 GMT
            Not After : Apr  4 15:13:44 2025 GMT
        Subject: C=US, ST=Michigan, O=Dart Container Corp., OU=kojid, CN=mdct-koji-b3-f21.dartcontainer.com
        Subject Public Key Info:
            Public Key Algorithm: rsaEncryption
                Public-Key: (2048 bit)
                Modulus:
                    00:9f:4d:c3:a6:ee:0b:42:85:1b:7d:65:3e:29:b7:
                    0a:a8:26:e5:5d:80:06:ee:52:8a:ea:d2:e7:66:9b:
                    40:4f:50:6f:cd:1e:c1:5e:64:95:05:6b:d0:d2:00:
                    72:28:c9:e9:b7:8c:99:51:88:db:34:fb:62:ea:a9:
                    b4:2d:3d:eb:c4:1a:e6:c3:12:de:6f:0f:07:b6:50:
                    dc:6f:29:07:35:4f:b9:02:c9:d3:aa:3d:54:64:0a:
                    4d:7e:ea:bc:16:eb:3a:b0:e1:80:23:f9:2e:1d:4a:
                    11:81:f3:c1:5d:e6:45:aa:42:d2:cc:8a:f1:ad:d2:
                    2a:f5:c6:ad:cf:23:e5:33:d7:73:fc:97:3d:88:a0:
                    c2:92:b7:97:9e:15:8c:d3:9f:fe:79:95:b6:a2:f4:
                    c8:b2:ec:f9:c3:42:6c:9b:4f:59:94:b4:f5:c6:b8:
                    87:37:c1:7b:e0:16:2c:2d:de:b3:01:89:de:a8:34:
                    0b:28:b7:60:4f:ad:b5:75:42:40:a8:32:f1:bb:e0:
                    59:40:e9:d4:bc:ac:6f:2c:c1:db:12:7c:55:a9:7e:
                    14:52:dc:18:9d:a5:f9:3b:16:3d:58:81:8e:3e:27:
                    f0:02:56:8d:a1:1d:e1:aa:ad:d0:15:53:18:9f:8e:
                    b2:d4:75:2f:ef:fc:5a:cc:6f:cb:33:47:71:a9:aa:
                    5e:b1
                Exponent: 65537 (0x10001)
        X509v3 extensions:
            X509v3 Basic Constraints: 
                CA:FALSE
            Netscape Comment: 
                OpenSSL Generated Certificate
            X509v3 Subject Key Identifier: 
                21:2C:52:83:CC:AB:BE:CC:2E:85:0E:A8:7D:FA:3A:09:7E:2F:82:D0
            X509v3 Authority Key Identifier: 
                keyid:4D:E6:08:C1:37:BE:47:CE:CD:CE:13:DB:95:0F:6C:98:27:D3:4F:62
                DirName:/C=US/ST=Michigan/L=Mason/O=Dart Container Corp./OU=Koji Certificate Authority/CN=mdct-koji-f21.dartcontainer.com
                serial:ED:94:1F:27:EE:08:9C:31

    Signature Algorithm: sha256WithRSAEncryption
         5d:05:42:16:9e:fb:42:77:10:64:6e:2c:e5:6d:da:87:d7:8c:
         fa:99:09:30:e0:5a:b3:5c:12:6d:3b:2a:92:17:bc:6c:d3:82:
         71:43:11:cf:8a:25:42:3c:b3:72:12:d0:07:f5:7f:d3:d6:e2:
         db:44:ff:fb:fa:a9:3f:c6:a0:cb:09:a7:71:fc:94:df:be:d7:
         f8:e0:a3:1f:80:8d:4b:11:7d:9b:62:f3:39:4d:77:b7:14:6e:
         4d:ad:65:45:44:5e:40:47:4d:da:28:09:30:01:a5:10:8b:7e:
         61:d4:eb:dc:1a:42:3d:e8:fe:d1:0a:0f:e7:3a:da:0c:3c:a6:
         4b:52:a1:8f:30:8d:4b:b2:e5:0e:a1:5c:0e:90:ca:ad:46:7e:
         f9:2c:1d:74:9c:47:7d:6f:b9:21:ff:e7:c6:48:c3:9d:8b:1f:
         1b:75:55:dc:a6:90:24:9f:9d:40:73:17:4c:bd:fa:3a:90:ec:
         f7:1d:db:b2:90:fc:9c:62:0c:37:df:28:1c:09:ab:63:28:8b:
         a3:90:0b:bd:66:83:f2:e4:28:42:9d:b3:7a:77:f3:86:c7:d8:
         6f:06:ee:07:e7:70:ac:23:e7:d5:a9:a7:aa:59:6c:73:37:c9:
         d4:42:32:59:ba:9a:48:73:eb:0d:07:24:ad:11:90:0e:64:9e:
         fc:82:56:32
-----BEGIN CERTIFICATE-----
MIIEyjCCA7KgAwIBAgIBCTANBgkqhkiG9w0BAQsFADCBnjELMAkGA1UEBhMCVVMx
ETAPBgNVBAgTCE1pY2hpZ2FuMQ4wDAYDVQQHEwVNYXNvbjEdMBsGA1UEChMURGFy
dCBDb250YWluZXIgQ29ycC4xIzAhBgNVBAsTGktvamkgQ2VydGlmaWNhdGUgQXV0
aG9yaXR5MSgwJgYDVQQDEx9tZGN0LWtvamktZjIxLmRhcnRjb250YWluZXIuY29t
MB4XDTE1MDQwNzE1MTM0NFoXDTI1MDQwNDE1MTM0NFowfDELMAkGA1UEBhMCVVMx
ETAPBgNVBAgTCE1pY2hpZ2FuMR0wGwYDVQQKExREYXJ0IENvbnRhaW5lciBDb3Jw
LjEOMAwGA1UECxMFa29qaWQxKzApBgNVBAMTIm1kY3Qta29qaS1iMy1mMjEuZGFy
dGNvbnRhaW5lci5jb20wggEiMA0GCSqGSIb3DQEBAQUAA4IBDwAwggEKAoIBAQCf
TcOm7gtChRt9ZT4ptwqoJuVdgAbuUorq0udmm0BPUG/NHsFeZJUFa9DSAHIoyem3
jJlRiNs0+2LqqbQtPevEGubDEt5vDwe2UNxvKQc1T7kCydOqPVRkCk1+6rwW6zqw
4YAj+S4dShGB88Fd5kWqQtLMivGt0ir1xq3PI+Uz13P8lz2IoMKSt5eeFYzTn/55
lbai9Miy7PnDQmybT1mUtPXGuIc3wXvgFiwt3rMBid6oNAsot2BPrbV1QkCoMvG7
4FlA6dS8rG8swdsSfFWpfhRS3Bidpfk7Fj1YgY4+J/ACVo2hHeGqrdAVUxifjrLU
dS/v/FrMb8szR3Gpql6xAgMBAAGjggEyMIIBLjAJBgNVHRMEAjAAMCwGCWCGSAGG
+EIBDQQfFh1PcGVuU1NMIEdlbmVyYXRlZCBDZXJ0aWZpY2F0ZTAdBgNVHQ4EFgQU
ISxSg8yrvswuhQ6offo6CX4vgtAwgdMGA1UdIwSByzCByIAUTeYIwTe+R87NzhPb
lQ9smCfTT2KhgaSkgaEwgZ4xCzAJBgNVBAYTAlVTMREwDwYDVQQIEwhNaWNoaWdh
bjEOMAwGA1UEBxMFTWFzb24xHTAbBgNVBAoTFERhcnQgQ29udGFpbmVyIENvcnAu
MSMwIQYDVQQLExpLb2ppIENlcnRpZmljYXRlIEF1dGhvcml0eTEoMCYGA1UEAxMf
bWRjdC1rb2ppLWYyMS5kYXJ0Y29udGFpbmVyLmNvbYIJAO2UHyfuCJwxMA0GCSqG
SIb3DQEBCwUAA4IBAQBdBUIWnvtCdxBkbizlbdqH14z6mQkw4FqzXBJtOyqSF7xs
04JxQxHPiiVCPLNyEtAH9X/T1uLbRP/7+qk/xqDLCadx/JTfvtf44KMfgI1LEX2b
YvM5TXe3FG5NrWVFRF5AR03aKAkwAaUQi35h1OvcGkI96P7RCg/nOtoMPKZLUqGP
MI1LsuUOoVwOkMqtRn75LB10nEd9b7kh/+fGSMOdix8bdVXcppAkn51AcxdMvfo6
kOz3HduykPycYgw33ygcCatjKIujkAu9ZoPy5ChCnbN6d/OGx9hvBu4H53CsI+fV
qaeqWWxzN8nUQjJZuppIc+sNByStEZAOZJ78glYy
-----END CERTIFICATE-----
-----BEGIN RSA PRIVATE KEY-----
MIIEogIBAAKCAQEAn03Dpu4LQoUbfWU+KbcKqCblXYAG7lKK6tLnZptAT1BvzR7B
XmSVBWvQ0gByKMnpt4yZUYjbNPti6qm0LT3rxBrmwxLebw8HtlDcbykHNU+5AsnT
qj1UZApNfuq8Fus6sOGAI/kuHUoRgfPBXeZFqkLSzIrxrdIq9catzyPlM9dz/Jc9
iKDCkreXnhWM05/+eZW2ovTIsuz5w0Jsm09ZlLT1xriHN8F74BYsLd6zAYneqDQL
KLdgT621dUJAqDLxu+BZQOnUvKxvLMHbEnxVqX4UUtwYnaX5OxY9WIGOPifwAlaN
oR3hqq3QFVMYn46y1HUv7/xazG/LM0dxqapesQIDAQABAoIBACYyXTFPbn+6rsa4
WdlivDlpaiGrKv5F6G05uKZPn3HlFYmXUEIz189+9IkF9ll1YIbUPYbhS74+cI9X
tY4LhNZ2pNItWgxDDFRYuyIkMkhEH1Zd0lTFc9Cw77f4zLSqHl5/E1yMyNPZCK2i
JsE/D4EtmKHWxvAorohT5ST/tFtjctLVPsgD4lndJwIM8lzv2X3q7XI/V0CWrLZk
3VB+5aD7kEXKtBShUQ1W6JAoJB+TdTyGA9SPpzksKohf2SgbwMTwOnATEzS+1Dg/
uIjMW87tutik0w2Nuf/G0WsvT8Ef2etkCSllpJEqcydWb5d/gHeDhcAB0m2DYkoj
dQl7g8kCgYEA0TEI+jos4Y5Etuve/3rmYmqw049AdJk6G2mmb3UuE/1vhCCKJ2BP
dMks7CnSPXVSq2vNyu+BmgtuNJmOeet2Ud7REHsKCr8IDoQGQSENJ4h3RKA8EYTN
WZoGmZzwLFl7MSfEPM0XZndX/iboOsqCOIo9X125wR7bZXrQc7L8LccCgYEAwvML
Yrpa0S+57P4hf0XbOkg7eAZM2tzFUlN1SSQ8m0CEeG/RWoqgPBcjzV+gWJ6ATUUD
bDNJ2UgBRpeQ9A9iMaiV9SED3pX23EqzcWbxyw65CnAQiiuA0jzbW6C1Rd2DWU6I
d4NF4yAP/aC3D8g53ZWlf8ZNHgnjgroIa7fq78cCgYBfAjtGkodxxdC1l3kHZYUf
K7+1xjkK+9ClRJ2fv4O29oLganr0mUxdCUWK2Q+wdAmg62xi/9ZH5WsfHqLUAroR
QvaG2qrb6Jk7JoFEsUMtMlCg7Xl6p2swh8D5oYp/SgCmeZ4p0ygOlKN1Pax5jyIH
ldl757CG4oHYnCfydFcOXwKBgE/iVg0LvgEwJGjnrgRANNhKFwxU0JNymezlRA9H
qQoZQu8zKr+GRKi69rHGeKc3s+111TQ2RBGkPtmVbBGGaD9fDKvY7oP8QZ79gVB7
1aLWkp6jUzO7JduAkoaWcRGC9rrWwnbutOmgDs1oWPs/me6hzqJwONORS8gawS6a
u8urAoGASwnX79XMyekK1U4a/vTEl5s1PWsuiuNYjBHLtnD3huXEYqpIR5HdXYGB
Ohnajd2uywYFdLgkPKsjkMtkB6uPlfEJIwNX3T488pv86XcFuhmfY1KJs5KPJC2K
IV7OmFk1bEfvwczd7ZGzeCQ126dq3HvO8Lr+4KGUa8YIB/qxuU4=
-----END RSA PRIVATE KEY-----
