Certificate:
    Data:
        Version: 3 (0x2)
        Serial Number: 8 (0x8)
        Signature Algorithm: sha1WithRSAEncryption
        Issuer: C=US, ST=Michigan, L=Mason, O=doubledog.org, OU=Security, CN=doubledog.org/emailAddress=jflorian@doubledog.org
        Validity
            Not Before: Jul 19 15:49:41 2009 GMT
            Not After : Jul 17 15:49:41 2019 GMT
        Subject: C=US, ST=Michigan, O=doubledog.org, OU=Postfix Client, CN=droopy.doubledog.org/emailAddress=jflorian@doubledog.org
        Subject Public Key Info:
            Public Key Algorithm: rsaEncryption
            RSA Public Key: (1024 bit)
                Modulus (1024 bit):
                    00:e4:b2:f8:78:f9:e6:01:68:48:8c:f6:4f:7d:fd:
                    27:e2:2d:20:ba:ee:a0:42:f8:54:3d:bb:f9:d2:4d:
                    fb:93:b8:bf:2c:52:4b:b3:31:1a:e4:bf:95:c9:87:
                    73:f6:d3:f8:58:6d:0b:a2:96:28:be:af:89:e4:78:
                    f8:f9:8b:14:d9:10:6f:cd:dd:90:cd:6e:4e:4a:0e:
                    0f:10:b3:9c:fe:fd:1a:82:90:b2:a4:ad:98:0e:cf:
                    a2:9d:6e:d4:61:ab:91:57:c7:2b:60:15:9e:69:21:
                    82:6d:11:62:7a:39:d7:14:c5:95:bb:64:44:7c:34:
                    94:65:83:24:14:70:41:53:3d
                Exponent: 65537 (0x10001)
        X509v3 extensions:
            X509v3 Basic Constraints: 
                CA:FALSE
            Netscape Comment: 
                OpenSSL Generated Certificate
            X509v3 Subject Key Identifier: 
                CD:31:08:52:57:55:E8:B4:C8:98:1C:97:13:CD:2C:F7:69:53:23:EA
            X509v3 Authority Key Identifier: 
                keyid:0B:AA:44:C8:DA:E4:E7:94:A0:99:B4:EF:AF:AE:2B:EE:71:41:AF:77

    Signature Algorithm: sha1WithRSAEncryption
        39:17:c8:dc:fd:0e:3e:18:51:ff:bd:da:27:23:05:97:84:93:
        ec:a8:bd:8c:10:d9:1e:6f:83:52:6e:c3:44:96:93:d7:36:d6:
        da:02:ff:ab:78:80:64:c6:9e:a9:60:a4:15:e6:82:9e:3b:a5:
        21:5f:02:70:c8:4f:83:4f:96:4e:1b:d0:78:d2:33:12:d2:d1:
        ab:c5:4c:54:6a:e9:1c:97:a5:94:5b:68:c1:9a:19:27:f9:40:
        24:10:ea:21:f0:25:97:80:bc:ee:a6:7c:54:c4:74:f3:2a:9e:
        ac:24:83:f8:02:7c:1d:0d:d6:9f:11:6c:4d:e5:eb:14:2a:be:
        66:d4
-----BEGIN CERTIFICATE-----
MIIDJDCCAo2gAwIBAgIBCDANBgkqhkiG9w0BAQUFADCBmjELMAkGA1UEBhMCVVMx
ETAPBgNVBAgTCE1pY2hpZ2FuMQ4wDAYDVQQHEwVNYXNvbjEWMBQGA1UEChMNZG91
YmxlZG9nLm9yZzERMA8GA1UECxMIU2VjdXJpdHkxFjAUBgNVBAMTDWRvdWJsZWRv
Zy5vcmcxJTAjBgkqhkiG9w0BCQEWFmpmbG9yaWFuQGRvdWJsZWRvZy5vcmcwHhcN
MDkwNzE5MTU0OTQxWhcNMTkwNzE3MTU0OTQxWjCBlzELMAkGA1UEBhMCVVMxETAP
BgNVBAgTCE1pY2hpZ2FuMRYwFAYDVQQKEw1kb3VibGVkb2cub3JnMRcwFQYDVQQL
Ew5Qb3N0Zml4IENsaWVudDEdMBsGA1UEAxMUZHJvb3B5LmRvdWJsZWRvZy5vcmcx
JTAjBgkqhkiG9w0BCQEWFmpmbG9yaWFuQGRvdWJsZWRvZy5vcmcwgZ8wDQYJKoZI
hvcNAQEBBQADgY0AMIGJAoGBAOSy+Hj55gFoSIz2T339J+ItILruoEL4VD27+dJN
+5O4vyxSS7MxGuS/lcmHc/bT+FhtC6KWKL6vieR4+PmLFNkQb83dkM1uTkoODxCz
nP79GoKQsqStmA7Pop1u1GGrkVfHK2AVnmkhgm0RYno51xTFlbtkRHw0lGWDJBRw
QVM9AgMBAAGjezB5MAkGA1UdEwQCMAAwLAYJYIZIAYb4QgENBB8WHU9wZW5TU0wg
R2VuZXJhdGVkIENlcnRpZmljYXRlMB0GA1UdDgQWBBTNMQhSV1XotMiYHJcTzSz3
aVMj6jAfBgNVHSMEGDAWgBQLqkTI2uTnlKCZtO+vrivucUGvdzANBgkqhkiG9w0B
AQUFAAOBgQA5F8jc/Q4+GFH/vdonIwWXhJPsqL2MENkeb4NSbsNElpPXNtbaAv+r
eIBkxp6pYKQV5oKeO6UhXwJwyE+DT5ZOG9B40jMS0tGrxUxUaukcl6WUW2jBmhkn
+UAkEOoh8CWXgLzupnxUxHTzKp6sJIP4AnwdDdafEWxN5esUKr5m1A==
-----END CERTIFICATE-----
